(dp0
S'cn'
p1
(lp2
(S'202.112.0.44'
p3
I53
tp4
a(S'203.119.25.1'
p5
I53
tp6
a(S'203.119.26.1'
p7
I53
tp8
a(S'203.119.27.1'
p9
I53
tp10
a(S'203.119.28.1'
p11
I53
tp12
a(S'203.119.29.1'
p13
I53
tp14
asS'cc'
p15
(lp16
(S'192.42.93.34'
p17
I53
tp18
a(S'192.5.6.34'
p19
I53
tp20
a(S'192.26.92.34'
p21
I53
tp22
a(S'192.35.51.34'
p23
I53
tp24
a(S'192.31.80.34'
p25
I53
tp26
a(S'192.54.112.34'
p27
I53
tp28
a(S'192.41.162.34'
p29
I53
tp30
asS'it'
p31
(lp32
(S'194.0.1.22'
p33
I53
tp34
a(S'217.29.76.4'
p35
I53
tp36
a(S'193.206.141.46'
p37
I53
tp38
a(S'192.12.192.5'
p39
I53
tp40
a(S'194.119.192.34'
p41
I53
tp42
a(S'194.0.16.215'
p43
I53
tp44
asS'cz'
p45
(lp46
(S'193.171.255.48'
p47
I53
tp48
a(S'194.0.12.1'
p49
I53
tp50
a(S'194.0.13.1'
p51
I53
tp52
a(S'193.29.206.1'
p53
I53
tp54
a(S'194.0.14.1'
p55
I53
tp56
asS'ar'
p57
(lp58
(S'130.59.138.49'
p59
I53
tp60
a(S'200.16.98.2'
p61
I53
tp62
a(S'193.0.9.59'
p63
I53
tp64
a(S'200.16.97.17'
p65
I53
tp66
a(S'168.101.16.10'
p67
I53
tp68
asS'su'
p69
(lp70
(S'194.85.252.62'
p71
I53
tp72
a(S'193.232.156.17'
p73
I53
tp74
a(S'193.232.128.6'
p75
I53
tp76
a(S'193.232.142.17'
p77
I53
tp78
a(S'194.190.124.17'
p79
I53
tp80
asS'in'
p81
(lp82
(S'199.7.87.1'
p83
I53
tp84
a(S'220.226.100.30'
p85
I53
tp86
a(S'199.249.117.1'
p87
I53
tp88
a(S'199.253.56.1'
p89
I53
tp90
a(S'125.19.40.90'
p91
I53
tp92
a(S'199.249.125.1'
p93
I53
tp94
a(S'199.253.57.1'
p95
I53
tp96
a(S'199.253.58.1'
p97
I53
tp98
a(S'194.0.1.7'
p99
I53
tp100
asS'eu'
p101
(lp102
(S'93.190.128.138'
p103
I53
tp104
a(S'91.200.16.100'
p105
I53
tp106
a(S'193.2.221.60'
p107
I53
tp108
a(S'194.146.106.90'
p109
I53
tp110
a(S'194.0.1.19'
p111
I53
tp112
a(S'195.66.241.178'
p113
I53
tp114
asS'ru'
p115
g70
sS'nl'
p116
(lp117
(S'194.146.106.42'
p118
I53
tp119
a(S'193.176.144.5'
p120
I53
tp121
a(S'213.154.241.85'
p122
I53
tp123
a(S'194.171.17.10'
p124
I53
tp125
a(S'95.142.99.212'
p126
I53
tp127
a(S'194.0.28.53'
p128
I53
tp129
a(S'192.93.0.4'
p130
I53
tp131
a(S'192.5.4.1'
p132
I53
tp133
asS'pw'
p134
(lp135
(S'194.169.218.12'
p136
I53
tp137
a(S'185.24.64.12'
p138
I53
tp139
a(S'194.169.218.13'
p140
I53
tp141
a(S'185.24.64.13'
p142
I53
tp143
a(S'194.0.2.2'
p144
I53
tp145
asS'tv'
p146
g16
sS'tw'
p147
(lp148
(S'220.229.225.195'
p149
I53
tp150
a(S'203.119.3.1'
p151
I53
tp152
a(S'192.83.166.11'
p153
I53
tp154
a(S'202.12.31.141'
p155
I53
tp156
a(S'203.73.24.8'
p157
I53
tp158
a(S'210.201.138.58'
p159
I53
tp160
a(S'61.220.48.1'
p161
I53
tp162
a(S'210.17.9.230'
p163
I53
tp164
a(S'211.20.231.11'
p165
I53
tp166
a(S'163.28.1.10'
p167
I53
tp168
asS'tr'
p169
(lp170
(S'178.251.42.18'
p171
I53
tp172
a(S'193.0.9.120'
p173
I53
tp174
a(S'213.248.162.131'
p175
I53
tp176
a(S'144.122.95.51'
p177
I53
tp178
a(S'144.122.95.52'
p179
I53
tp180
a(S'193.140.100.200'
p181
I53
tp182
asS'to'
p183
(lp184
(S'216.74.32.100'
p185
I53
tp186
a(S'198.6.1.82'
p187
I53
tp188
a(S'193.0.9.118'
p189
I53
tp190
a(S'196.7.0.139'
p191
I53
tp192
a(S'216.74.32.104'
p193
I53
tp194
asS'tk'
p195
(lp196
(S'194.0.38.1'
p197
I53
tp198
a(S'194.0.39.1'
p199
I53
tp200
a(S'194.0.40.1'
p201
I53
tp202
a(S'194.0.41.1'
p203
I53
tp204
asS'net'
p205
(lp206
(S'192.12.94.30'
p207
I53
tp208
a(S'192.26.92.30'
p209
I53
tp210
a(S'192.31.80.30'
p211
I53
tp212
a(S'192.33.14.30'
p213
I53
tp214
a(S'192.35.51.30'
p215
I53
tp216
a(S'192.41.162.30'
p217
I53
tp218
a(S'192.42.93.30'
p219
I53
tp220
a(S'192.43.172.30'
p221
I53
tp222
a(S'192.48.79.30'
p223
I53
tp224
a(S'192.5.6.30'
p225
I53
tp226
a(S'192.52.178.30'
p227
I53
tp228
a(S'192.54.112.30'
p229
I53
tp230
a(S'192.55.83.30'
p231
I53
tp232
asS'pl'
p233
(lp234
(S'213.172.174.70'
p235
I53
tp236
a(S'217.17.46.189'
p237
I53
tp238
a(S'195.187.245.44'
p239
I53
tp240
a(S'156.154.100.15'
p241
I53
tp242
a(S'195.47.235.226'
p243
I53
tp244
a(S'194.0.1.2'
p245
I53
tp246
a(S'149.156.1.6'
p247
I53
tp248
a(S'195.80.237.162'
p249
I53
tp250
asS'be'
p251
(lp252
(S'195.66.241.90'
p253
I53
tp254
a(S'194.0.1.10'
p255
I53
tp256
a(S'194.0.6.1'
p257
I53
tp258
a(S'193.190.135.4'
p259
I53
tp260
a(S'195.47.235.138'
p261
I53
tp262
asS'fr'
p263
(lp264
(S'194.146.106.46'
p265
I53
tp266
a(S'194.0.9.1'
p267
I53
tp268
a(S'192.5.4.2'
p269
I53
tp270
a(S'194.0.36.1'
p271
I53
tp272
a(S'193.176.144.22'
p273
I53
tp274
asS'de'
p275
(lp276
(S'194.0.0.53'
p277
I53
tp278
a(S'195.243.137.26'
p279
I53
tp280
a(S'194.246.96.1'
p281
I53
tp282
a(S'194.146.107.6'
p283
I53
tp284
a(S'81.91.164.5'
p285
I53
tp286
a(S'77.67.63.105'
p287
I53
tp288
asS'hk'
p289
(lp290
(S'194.146.106.70'
p291
I53
tp292
a(S'128.32.136.14'
p293
I53
tp294
a(S'210.201.138.58'
p295
I53
tp296
a(S'204.61.216.46'
p297
I53
tp298
a(S'203.119.2.18'
p299
I53
tp300
a(S'203.119.87.19'
p301
I53
tp302
a(S'137.189.6.21'
p303
I53
tp304
a(S'128.32.136.3'
p305
I53
tp306
a(S'202.12.28.140'
p307
I53
tp308
a(S'202.45.188.39'
p309
I53
tp310
asS'biz'
p311
(lp312
(S'156.154.126.65'
p313
I53
tp314
a(S'156.154.125.65'
p315
I53
tp316
a(S'156.154.127.65'
p317
I53
tp318
a(S'209.173.58.66'
p319
I53
tp320
a(S'156.154.128.65'
p321
I53
tp322
a(S'156.154.124.65'
p323
I53
tp324
asS'br'
p325
(lp326
(S'200.160.0.10'
p327
I53
tp328
a(S'200.229.248.10'
p329
I53
tp330
a(S'200.192.233.10'
p331
I53
tp332
a(S'200.219.154.10'
p333
I53
tp334
a(S'200.219.159.10'
p335
I53
tp336
a(S'200.189.41.10'
p337
I53
tp338
asS'org'
p339
(lp340
(S'199.19.53.1'
p341
I53
tp342
a(S'199.19.54.1'
p343
I53
tp344
a(S'199.19.56.1'
p345
I53
tp346
a(S'199.19.57.1'
p347
I53
tp348
a(S'199.249.112.1'
p349
I53
tp350
a(S'199.249.120.1'
p351
I53
tp352
asS'info'
p353
(lp354
(S'199.249.113.1'
p355
I53
tp356
a(S'199.249.121.1'
p357
I53
tp358
a(S'199.254.31.1'
p359
I53
tp360
a(S'199.254.48.1'
p361
I53
tp362
a(S'199.254.49.1'
p363
I53
tp364
a(S'199.254.50.1'
p365
I53
tp366
asS'name'
p367
g16
sS'com'
p368
(lp369
(S'192.12.94.30'
p370
I53
tp371
a(S'192.26.92.30'
p372
I53
tp373
a(S'192.31.80.30'
p374
I53
tp375
a(S'192.33.14.30'
p376
I53
tp377
a(S'192.35.51.30'
p378
I53
tp379
a(S'192.41.162.30'
p380
I53
tp381
a(S'192.42.93.30'
p382
I53
tp383
a(S'192.43.172.30'
p384
I53
tp385
a(S'192.48.79.30'
p386
I53
tp387
a(S'192.5.6.30'
p388
I53
tp389
a(S'192.52.178.30'
p390
I53
tp391
a(S'192.54.112.30'
p392
I53
tp393
a(S'192.55.83.30'
p394
I53
tp395
asS'us'
p396
(lp397
(S'156.154.126.70'
p398
I53
tp399
a(S'156.154.127.70'
p400
I53
tp401
a(S'209.173.58.70'
p402
I53
tp403
a(S'156.154.124.70'
p404
I53
tp405
a(S'156.154.125.70'
p406
I53
tp407
a(S'156.154.128.70'
p408
I53
tp409
asS'kr'
p410
(lp411
(S'202.30.124.100'
p412
I53
tp413
a(S'203.83.159.1'
p414
I53
tp415
a(S'61.74.75.1'
p416
I53
tp417
a(S'202.31.190.1'
p418
I53
tp419
a(S'218.38.181.90'
p420
I53
tp421
a(S'203.248.246.220'
p422
I53
tp423
asS'uk'
p424
(lp425
(S'156.154.103.3'
p426
I53
tp427
a(S'213.219.13.131'
p428
I53
tp429
a(S'195.66.240.130'
p430
I53
tp431
a(S'156.154.100.3'
p432
I53
tp433
a(S'213.248.254.130'
p434
I53
tp435
a(S'213.246.167.131'
p436
I53
tp437
a(S'217.79.164.131'
p438
I53
tp439
a(S'156.154.101.3'
p440
I53
tp441
a(S'212.121.40.130'
p442
I53
tp443
a(S'156.154.102.3'
p444
I53
tp445
a(S'194.83.244.131'
p446
I53
tp447
asS'ua'
p448
(lp449
(S'216.218.215.27'
p450
I53
tp451
a(S'195.47.253.1'
p452
I53
tp453
a(S'192.5.4.1'
p454
I53
tp455
a(S'194.0.1.9'
p456
I53
tp457
a(S'193.0.9.121'
p458
I53
tp459
a(S'204.61.216.12'
p460
I53
tp461
as.