(dp0
S'gw'
p1
(lp2
(S'193.136.3.129'
p3
I53
tp4
a(S'193.136.7.17'
p5
I53
tp6
a(S'192.5.4.1'
p7
I53
tp8
asS'limited'
p9
(lp10
(S'37.209.196.7'
p11
I53
tp12
a(S'37.209.194.7'
p13
I53
tp14
a(S'37.209.192.7'
p15
I53
tp16
a(S'37.209.198.7'
p17
I53
tp18
asS'gu'
p19
(lp20
(S'193.0.9.78'
p21
I53
tp22
a(S'168.123.2.50'
p23
I53
tp24
a(S'168.123.4.10'
p25
I53
tp26
a(S'67.98.164.133'
p27
I53
tp28
asS'coach'
p29
(lp30
(S'37.209.196.7'
p31
I53
tp32
a(S'37.209.194.7'
p33
I53
tp34
a(S'37.209.192.7'
p35
I53
tp36
a(S'37.209.198.7'
p37
I53
tp38
asS'gs'
p39
(lp40
(S'199.19.6.4'
p41
I53
tp42
a(S'193.0.9.77'
p43
I53
tp44
a(S'204.61.216.21'
p45
I53
tp46
a(S'199.19.5.4'
p47
I53
tp48
asS'gr'
p49
(lp50
(S'139.91.191.3'
p51
I53
tp52
a(S'200.160.7.163'
p53
I53
tp54
a(S'78.104.145.227'
p55
I53
tp56
a(S'139.91.1.1'
p57
I53
tp58
a(S'81.91.161.80'
p59
I53
tp60
a(S'176.126.38.132'
p61
I53
tp62
a(S'194.0.4.10'
p63
I53
tp64
asS'gq'
p65
(lp66
(S'185.21.170.65'
p67
I53
tp68
a(S'185.21.171.65'
p69
I53
tp70
a(S'185.21.169.65'
p71
I53
tp72
a(S'185.21.168.65'
p73
I53
tp74
asS'gp'
p75
(lp76
(S'193.218.114.2'
p77
I53
tp78
a(S'216.118.252.51'
p79
I53
tp80
a(S'193.251.160.222'
p81
I53
tp82
a(S'193.0.9.76'
p83
I53
tp84
asS'dance'
p85
(lp86
(S'37.209.196.7'
p87
I53
tp88
a(S'37.209.194.7'
p89
I53
tp90
a(S'37.209.192.7'
p91
I53
tp92
a(S'37.209.198.7'
p93
I53
tp94
asS'global'
p95
(lp96
(S'65.22.82.1'
p97
I53
tp98
a(S'65.22.80.1'
p99
I53
tp100
a(S'65.22.83.1'
p101
I53
tp102
a(S'65.22.81.1'
p103
I53
tp104
asS'sca'
p105
(lp106
(S'192.26.92.34'
p107
I53
tp108
a(S'192.35.51.34'
p109
I53
tp110
a(S'192.31.80.34'
p111
I53
tp112
a(S'192.41.162.34'
p113
I53
tp114
a(S'192.42.93.34'
p115
I53
tp116
a(S'192.54.112.34'
p117
I53
tp118
a(S'192.5.6.34'
p119
I53
tp120
asS'gy'
p121
(lp122
(S'204.61.216.34'
p123
I53
tp124
a(S'193.0.9.79'
p125
I53
tp126
a(S'190.80.0.42'
p127
I53
tp128
a(S'190.80.0.41'
p129
I53
tp130
a(S'128.223.32.35'
p131
I53
tp132
a(S'192.5.4.1'
p133
I53
tp134
asS'scb'
p135
(lp136
(S'174.139.105.37'
p137
I53
tp138
a(S'122.155.23.51'
p139
I53
tp140
a(S'203.159.64.51'
p141
I53
tp142
a(S'194.0.1.35'
p143
I53
tp144
asS'gg'
p145
(lp146
(S'202.46.190.131'
p147
I53
tp148
a(S'204.61.216.74'
p149
I53
tp150
a(S'193.63.94.20'
p151
I53
tp152
a(S'193.201.42.178'
p153
I53
tp154
a(S'128.86.1.20'
p155
I53
tp156
a(S'194.146.106.86'
p157
I53
tp158
asS'gf'
p159
(lp160
(S'213.16.20.3'
p161
I53
tp162
a(S'213.188.172.1'
p163
I53
tp164
a(S'188.165.38.14'
p165
I53
tp166
asS'ge'
p167
(lp168
(S'192.93.0.4'
p169
I53
tp170
a(S'212.72.130.11'
p171
I53
tp172
a(S'137.39.1.3'
p173
I53
tp174
a(S'195.47.253.18'
p175
I53
tp176
asS'gt'
p177
(lp178
(S'200.33.111.1'
p179
I53
tp180
a(S'204.61.216.95'
p181
I53
tp182
a(S'205.161.188.3'
p183
I53
tp184
a(S'200.160.0.5'
p185
I53
tp186
a(S'168.234.68.2'
p187
I53
tp188
a(S'192.5.4.1'
p189
I53
tp190
a(S'200.9.74.2'
p191
I53
tp192
asS'tours'
p193
(lp194
(S'37.209.196.7'
p195
I53
tp196
a(S'37.209.194.7'
p197
I53
tp198
a(S'37.209.192.7'
p199
I53
tp200
a(S'37.209.198.7'
p201
I53
tp202
asS'gb'
p203
(lp204
(S'128.86.1.20'
p205
I53
tp206
a(S'137.39.1.3'
p207
I53
tp208
a(S'193.62.157.66'
p209
I53
tp210
a(S'193.63.94.20'
p211
I53
tp212
asS'ga'
p213
(lp214
(S'185.21.171.49'
p215
I53
tp216
a(S'185.21.169.49'
p217
I53
tp218
a(S'185.21.168.49'
p219
I53
tp220
a(S'185.21.170.49'
p221
I53
tp222
asS'edu'
p223
(lp224
(S'192.26.92.30'
p225
I53
tp226
a(S'192.31.80.30'
p227
I53
tp228
a(S'192.35.51.30'
p229
I53
tp230
a(S'192.41.162.30'
p231
I53
tp232
a(S'192.5.6.30'
p233
I53
tp234
a(S'192.42.93.30'
p235
I53
tp236
asS'gn'
p237
(lp238
(S'203.119.56.132'
p239
I53
tp240
a(S'146.231.128.1'
p241
I53
tp242
a(S'147.28.0.39'
p243
I53
tp244
a(S'77.72.229.254'
p245
I53
tp246
asS'gm'
p247
(lp248
(S'194.63.250.217'
p249
I53
tp250
a(S'197.255.194.102'
p251
I53
tp252
a(S'196.216.168.29'
p253
I53
tp254
asS'gl'
p255
(lp256
(S'208.78.71.97'
p257
I53
tp258
a(S'194.177.224.13'
p259
I53
tp260
a(S'204.13.251.97'
p261
I53
tp262
a(S'204.13.250.97'
p263
I53
tp264
a(S'91.221.196.228'
p265
I53
tp266
a(S'208.78.70.97'
p267
I53
tp268
a(S'204.61.216.49'
p269
I53
tp270
asS'gi'
p271
(lp272
(S'199.249.124.1'
p273
I53
tp274
a(S'199.254.59.1'
p275
I53
tp276
a(S'199.254.62.1'
p277
I53
tp278
a(S'199.249.116.1'
p279
I53
tp280
a(S'199.254.60.1'
p281
I53
tp282
a(S'199.254.61.1'
p283
I53
tp284
asS'gh'
p285
(lp286
(S'193.194.185.2'
p287
I53
tp288
a(S'146.231.128.1'
p289
I53
tp290
a(S'203.119.56.132'
p291
I53
tp292
a(S'147.28.0.39'
p293
I53
tp294
a(S'196.3.64.1'
p295
I53
tp296
a(S'77.72.229.254'
p297
I53
tp298
asS'xn--q9jyb4c'
p299
(lp300
(S'216.239.32.105'
p301
I53
tp302
a(S'216.239.38.105'
p303
I53
tp304
a(S'216.239.36.105'
p305
I53
tp306
a(S'216.239.60.105'
p307
I53
tp308
a(S'216.239.34.105'
p309
I53
tp310
asS'vet'
p311
(lp312
(S'37.209.196.7'
p313
I53
tp314
a(S'37.209.194.7'
p315
I53
tp316
a(S'37.209.192.7'
p317
I53
tp318
a(S'37.209.198.7'
p319
I53
tp320
asS'tz'
p321
(lp322
(S'147.28.0.39'
p323
I53
tp324
a(S'196.216.168.20'
p325
I53
tp326
a(S'204.61.216.15'
p327
I53
tp328
a(S'193.29.206.2'
p329
I53
tp330
a(S'196.216.162.67'
p331
I53
tp332
a(S'192.5.4.1'
p333
I53
tp334
a(S'77.72.229.254'
p335
I53
tp336
asS'immo'
p337
(lp338
(S'37.209.196.7'
p339
I53
tp340
a(S'37.209.194.7'
p341
I53
tp342
a(S'37.209.192.7'
p343
I53
tp344
a(S'37.209.198.7'
p345
I53
tp346
asS'xn--30rr7y'
p347
(lp348
(S'1.8.242.1'
p349
I53
tp350
a(S'182.131.23.22'
p351
I53
tp352
asS'paris'
p353
(lp354
(S'194.0.36.1'
p355
I53
tp356
a(S'194.146.106.46'
p357
I53
tp358
a(S'194.0.9.1'
p359
I53
tp360
a(S'195.253.66.2'
p361
I53
tp362
asS'tw'
p363
(lp364
(S'61.220.48.1'
p365
I53
tp366
a(S'210.201.138.58'
p367
I53
tp368
a(S'211.20.231.11'
p369
I53
tp370
a(S'220.229.225.195'
p371
I53
tp372
a(S'163.28.1.10'
p373
I53
tp374
a(S'203.73.24.8'
p375
I53
tp376
a(S'203.119.3.1'
p377
I53
tp378
a(S'210.17.9.230'
p379
I53
tp380
a(S'202.12.31.141'
p381
I53
tp382
a(S'192.83.166.11'
p383
I53
tp384
asS'tt'
p385
(lp386
(S'204.61.216.63'
p387
I53
tp388
a(S'193.0.9.50'
p389
I53
tp390
a(S'200.33.111.1'
p391
I53
tp392
a(S'192.5.4.1'
p393
I53
tp394
asS'immobilien'
p395
(lp396
(S'37.209.196.7'
p397
I53
tp398
a(S'37.209.194.7'
p399
I53
tp400
a(S'37.209.192.7'
p401
I53
tp402
a(S'37.209.198.7'
p403
I53
tp404
asS'tr'
p405
(lp406
(S'178.251.42.18'
p407
I53
tp408
a(S'144.122.95.52'
p409
I53
tp410
a(S'193.0.9.120'
p411
I53
tp412
a(S'144.122.95.51'
p413
I53
tp414
a(S'193.140.100.200'
p415
I53
tp416
a(S'213.248.162.131'
p417
I53
tp418
asS'tn'
p419
(lp420
(S'193.95.67.22'
p421
I53
tp422
a(S'204.61.216.94'
p423
I53
tp424
a(S'196.216.168.25'
p425
I53
tp426
a(S'147.28.0.39'
p427
I53
tp428
a(S'193.95.66.10'
p429
I53
tp430
a(S'192.93.0.4'
p431
I53
tp432
asS'to'
p433
(lp434
(S'216.74.32.100'
p435
I53
tp436
a(S'193.0.9.118'
p437
I53
tp438
a(S'216.74.32.104'
p439
I53
tp440
a(S'198.6.1.82'
p441
I53
tp442
a(S'196.7.0.139'
p443
I53
tp444
asS'tl'
p445
(lp446
(S'199.19.6.12'
p447
I53
tp448
a(S'199.19.5.12'
p449
I53
tp450
a(S'204.61.216.19'
p451
I53
tp452
asS'bike'
p453
(lp454
(S'37.209.196.7'
p455
I53
tp456
a(S'37.209.194.7'
p457
I53
tp458
a(S'37.209.192.7'
p459
I53
tp460
a(S'37.209.198.7'
p461
I53
tp462
asS'tj'
p463
(lp464
(S'193.0.9.117'
p465
I53
tp466
a(S'91.218.160.197'
p467
I53
tp468
a(S'193.111.11.4'
p469
I53
tp470
a(S'128.223.32.35'
p471
I53
tp472
asS'tk'
p473
(lp474
(S'194.0.39.1'
p475
I53
tp476
a(S'194.0.40.1'
p477
I53
tp478
a(S'194.0.41.1'
p479
I53
tp480
a(S'194.0.38.1'
p481
I53
tp482
asS'supplies'
p483
(lp484
(S'37.209.196.7'
p485
I53
tp486
a(S'37.209.194.7'
p487
I53
tp488
a(S'37.209.192.7'
p489
I53
tp490
a(S'37.209.198.7'
p491
I53
tp492
asS'prod'
p493
(lp494
(S'216.239.32.105'
p495
I53
tp496
a(S'216.239.38.105'
p497
I53
tp498
a(S'216.239.36.105'
p499
I53
tp500
a(S'216.239.60.105'
p501
I53
tp502
a(S'216.239.34.105'
p503
I53
tp504
asS'tf'
p505
(lp506
(S'194.0.36.1'
p507
I53
tp508
a(S'192.5.4.2'
p509
I53
tp510
a(S'193.176.144.22'
p511
I53
tp512
a(S'194.146.106.46'
p513
I53
tp514
a(S'194.0.9.1'
p515
I53
tp516
asS'tg'
p517
(lp518
(S'80.248.64.20'
p519
I53
tp520
a(S'188.165.33.42'
p521
I53
tp522
a(S'103.25.58.26'
p523
I53
tp524
a(S'87.98.180.44'
p525
I53
tp526
a(S'198.73.186.1'
p527
I53
tp528
a(S'108.61.25.122'
p529
I53
tp530
asS'gbiz'
p531
(lp532
(S'216.239.32.105'
p533
I53
tp534
a(S'216.239.38.105'
p535
I53
tp536
a(S'216.239.36.105'
p537
I53
tp538
a(S'216.239.60.105'
p539
I53
tp540
a(S'216.239.34.105'
p541
I53
tp542
asS'emerck'
p543
(lp544
(S'65.22.156.1'
p545
I53
tp546
a(S'65.22.159.1'
p547
I53
tp548
a(S'65.22.157.1'
p549
I53
tp550
a(S'65.22.158.1'
p551
I53
tp552
asS'tc'
p553
(lp554
(S'119.9.93.69'
p555
I53
tp556
a(S'166.78.254.145'
p557
I53
tp558
a(S'31.169.81.225'
p559
I53
tp560
a(S'31.169.81.226'
p561
I53
tp562
a(S'162.13.87.182'
p563
I53
tp564
a(S'77.79.104.225'
p565
I53
tp566
a(S'77.79.104.226'
p567
I53
tp568
a(S'95.173.188.6'
p569
I53
tp570
asS'wme'
p571
(lp572
(S'194.0.2.2'
p573
I53
tp574
a(S'194.169.218.31'
p575
I53
tp576
a(S'194.0.1.45'
p577
I53
tp578
a(S'185.24.64.31'
p579
I53
tp580
asS'shoes'
p581
(lp582
(S'37.209.196.7'
p583
I53
tp584
a(S'37.209.194.7'
p585
I53
tp586
a(S'37.209.192.7'
p587
I53
tp588
a(S'37.209.198.7'
p589
I53
tp590
asS'me'
p591
(lp592
(S'89.188.44.44'
p593
I53
tp594
a(S'199.254.60.1'
p595
I53
tp596
a(S'199.254.62.1'
p597
I53
tp598
a(S'199.249.127.1'
p599
I53
tp600
a(S'199.249.119.1'
p601
I53
tp602
a(S'89.188.44.88'
p603
I53
tp604
a(S'199.254.59.1'
p605
I53
tp606
a(S'199.254.61.1'
p607
I53
tp608
asS'xn--io0a7i'
p609
(lp610
(S'125.208.43.1'
p611
I53
tp612
a(S'125.208.41.1'
p613
I53
tp614
a(S'125.208.44.1'
p615
I53
tp616
a(S'125.208.42.1'
p617
I53
tp618
a(S'125.208.40.1'
p619
I53
tp620
asS'coop'
p621
(lp622
(S'194.169.218.64'
p623
I53
tp624
a(S'185.24.64.64'
p625
I53
tp626
a(S'212.18.249.64'
p627
I53
tp628
a(S'212.18.248.64'
p629
I53
tp630
asS'garden'
p631
(lp632
(S'70.40.0.26'
p633
I53
tp634
a(S'72.42.114.26'
p635
I53
tp636
a(S'72.0.50.26'
p637
I53
tp638
a(S'70.40.8.26'
p639
I53
tp640
asS'kddi'
p641
(lp642
(S'65.22.166.1'
p643
I53
tp644
a(S'120.29.254.11'
p645
I53
tp646
a(S'65.22.167.1'
p647
I53
tp648
a(S'120.29.252.11'
p649
I53
tp650
a(S'65.22.165.1'
p651
I53
tp652
asS'maif'
p653
(lp654
(S'192.26.92.34'
p655
I53
tp656
a(S'192.31.80.34'
p657
I53
tp658
a(S'192.41.162.34'
p659
I53
tp660
a(S'192.42.93.34'
p661
I53
tp662
a(S'192.35.51.34'
p663
I53
tp664
a(S'192.5.6.34'
p665
I53
tp666
a(S'192.54.112.34'
p667
I53
tp668
asS'vegas'
p669
(lp670
(S'65.22.70.17'
p671
I53
tp672
a(S'65.22.71.17'
p673
I53
tp674
a(S'65.22.69.17'
p675
I53
tp676
a(S'65.22.68.17'
p677
I53
tp678
asS'fan'
p679
(lp680
(S'194.0.2.2'
p681
I53
tp682
a(S'194.0.1.45'
p683
I53
tp684
a(S'185.24.64.57'
p685
I53
tp686
a(S'194.169.218.57'
p687
I53
tp688
asS'sony'
p689
(lp690
(S'37.209.198.9'
p691
I53
tp692
a(S'37.209.192.9'
p693
I53
tp694
a(S'37.209.194.9'
p695
I53
tp696
a(S'37.209.196.9'
p697
I53
tp698
asS'xn--mgb9awbf'
p699
(lp700
(S'185.27.91.69'
p701
I53
tp702
a(S'37.209.194.6'
p703
I53
tp704
a(S'37.209.196.6'
p705
I53
tp706
a(S'37.209.192.6'
p707
I53
tp708
a(S'185.27.90.101'
p709
I53
tp710
a(S'37.209.198.6'
p711
I53
tp712
asS'cool'
p713
(lp714
(S'37.209.196.7'
p715
I53
tp716
a(S'37.209.194.7'
p717
I53
tp718
a(S'37.209.192.7'
p719
I53
tp720
a(S'37.209.198.7'
p721
I53
tp722
asS'tickets'
p723
(lp724
(S'194.169.218.58'
p725
I53
tp726
a(S'185.24.64.58'
p727
I53
tp728
a(S'194.0.1.45'
p729
I53
tp730
a(S'194.0.2.2'
p731
I53
tp732
asS'school'
p733
(lp734
(S'37.209.196.7'
p735
I53
tp736
a(S'37.209.194.7'
p737
I53
tp738
a(S'37.209.192.7'
p739
I53
tp740
a(S'37.209.198.7'
p741
I53
tp742
asS'dating'
p743
(lp744
(S'37.209.196.7'
p745
I53
tp746
a(S'37.209.194.7'
p747
I53
tp748
a(S'37.209.192.7'
p749
I53
tp750
a(S'37.209.198.7'
p751
I53
tp752
asS'vu'
p753
(lp754
(S'202.80.32.10'
p755
I53
tp756
a(S'202.80.32.9'
p757
I53
tp758
a(S'196.192.110.15'
p759
I53
tp760
a(S'202.80.32.7'
p761
I53
tp762
a(S'202.80.32.5'
p763
I53
tp764
asS'xn--3ds443g'
p765
(lp766
(S'65.22.189.9'
p767
I53
tp768
a(S'65.22.190.9'
p769
I53
tp770
a(S'65.22.188.9'
p771
I53
tp772
a(S'65.22.191.9'
p773
I53
tp774
asS'saarland'
p775
(lp776
(S'203.119.88.75'
p777
I53
tp778
a(S'203.119.88.76'
p779
I53
tp780
a(S'72.0.48.76'
p781
I53
tp782
a(S'72.0.48.75'
p783
I53
tp784
asS'democrat'
p785
(lp786
(S'37.209.196.7'
p787
I53
tp788
a(S'37.209.194.7'
p789
I53
tp790
a(S'37.209.192.7'
p791
I53
tp792
a(S'37.209.198.7'
p793
I53
tp794
asS'deals'
p795
(lp796
(S'37.209.196.7'
p797
I53
tp798
a(S'37.209.194.7'
p799
I53
tp800
a(S'37.209.192.7'
p801
I53
tp802
a(S'37.209.198.7'
p803
I53
tp804
asS'gd'
p805
(lp806
(S'194.0.11.103'
p807
I53
tp808
a(S'204.61.216.47'
p809
I53
tp810
a(S'193.0.9.75'
p811
I53
tp812
asS'guitars'
p813
(lp814
(S'72.52.71.3'
p815
I53
tp816
a(S'63.243.194.3'
p817
I53
tp818
a(S'38.103.2.3'
p819
I53
tp820
a(S'64.96.25.53'
p821
I53
tp822
asS'science'
p823
(lp824
(S'156.154.169.41'
p825
I53
tp826
a(S'156.154.172.41'
p827
I53
tp828
a(S'156.154.171.41'
p829
I53
tp830
a(S'156.154.173.41'
p831
I53
tp832
a(S'156.154.174.41'
p833
I53
tp834
a(S'156.154.170.41'
p835
I53
tp836
asS'qpon'
p837
(lp838
(S'156.154.172.32'
p839
I53
tp840
a(S'156.154.170.32'
p841
I53
tp842
a(S'156.154.173.32'
p843
I53
tp844
a(S'156.154.169.32'
p845
I53
tp846
a(S'156.154.171.32'
p847
I53
tp848
a(S'156.154.174.32'
p849
I53
tp850
asS'study'
p851
(lp852
(S'37.209.198.10'
p853
I53
tp854
a(S'37.209.196.10'
p855
I53
tp856
a(S'37.209.194.10'
p857
I53
tp858
a(S'37.209.192.10'
p859
I53
tp860
asS'yt'
p861
(lp862
(S'194.0.36.1'
p863
I53
tp864
a(S'192.5.4.2'
p865
I53
tp866
a(S'193.176.144.22'
p867
I53
tp868
a(S'194.146.106.46'
p869
I53
tp870
a(S'194.0.9.1'
p871
I53
tp872
asS'zm'
p873
(lp874
(S'196.216.168.44'
p875
I53
tp876
a(S'196.46.192.26'
p877
I53
tp878
a(S'41.222.240.15'
p879
I53
tp880
a(S'146.231.128.1'
p881
I53
tp882
a(S'196.46.192.21'
p883
I53
tp884
asS'work'
p885
(lp886
(S'72.0.50.24'
p887
I53
tp888
a(S'72.42.114.24'
p889
I53
tp890
asS'tel'
p891
(lp892
(S'199.7.66.1'
p893
I53
tp894
a(S'192.36.144.116'
p895
I53
tp896
a(S'194.146.106.38'
p897
I53
tp898
a(S'199.7.67.1'
p899
I53
tp900
a(S'204.74.113.1'
p901
I53
tp902
a(S'204.74.112.1'
p903
I53
tp904
a(S'198.133.199.11'
p905
I53
tp906
a(S'192.100.59.11'
p907
I53
tp908
asS'porn'
p909
(lp910
(S'199.115.155.1'
p911
I53
tp912
a(S'199.115.156.1'
p913
I53
tp914
a(S'199.115.152.1'
p915
I53
tp916
a(S'199.115.157.1'
p917
I53
tp918
a(S'199.115.153.1'
p919
I53
tp920
a(S'199.115.154.1'
p921
I53
tp922
asS'cfd'
p923
(lp924
(S'192.26.92.34'
p925
I53
tp926
a(S'192.35.51.34'
p927
I53
tp928
a(S'192.31.80.34'
p929
I53
tp930
a(S'192.41.162.34'
p931
I53
tp932
a(S'192.42.93.34'
p933
I53
tp934
a(S'192.54.112.34'
p935
I53
tp936
a(S'192.5.6.34'
p937
I53
tp938
asS'direct'
p939
(lp940
(S'37.209.196.7'
p941
I53
tp942
a(S'37.209.194.7'
p943
I53
tp944
a(S'37.209.192.7'
p945
I53
tp946
a(S'37.209.198.7'
p947
I53
tp948
asS'tires'
p949
(lp950
(S'37.209.196.7'
p951
I53
tp952
a(S'37.209.194.7'
p953
I53
tp954
a(S'37.209.192.7'
p955
I53
tp956
a(S'37.209.198.7'
p957
I53
tp958
asS'guge'
p959
(lp960
(S'216.239.32.105'
p961
I53
tp962
a(S'216.239.38.105'
p963
I53
tp964
a(S'216.239.36.105'
p965
I53
tp966
a(S'216.239.60.105'
p967
I53
tp968
a(S'216.239.34.105'
p969
I53
tp970
asS'eurovision'
p971
(lp972
(S'195.253.64.12'
p973
I53
tp974
a(S'195.253.64.11'
p975
I53
tp976
a(S'195.253.65.12'
p977
I53
tp978
a(S'195.253.65.11'
p979
I53
tp980
asS'lawyer'
p981
(lp982
(S'37.209.196.7'
p983
I53
tp984
a(S'37.209.194.7'
p985
I53
tp986
a(S'37.209.192.7'
p987
I53
tp988
a(S'37.209.198.7'
p989
I53
tp990
asS'download'
p991
(lp992
(S'156.154.159.50'
p993
I53
tp994
a(S'156.154.144.50'
p995
I53
tp996
a(S'156.154.145.50'
p997
I53
tp998
a(S'156.154.157.50'
p999
I53
tp1000
a(S'156.154.158.50'
p1001
I53
tp1002
a(S'156.154.156.50'
p1003
I53
tp1004
asS'zw'
p1005
(lp1006
(S'204.59.1.222'
p1007
I53
tp1008
a(S'194.133.122.47'
p1009
I53
tp1010
a(S'194.133.122.42'
p1011
I53
tp1012
a(S'194.133.122.34'
p1013
I53
tp1014
asS'abogado'
p1015
(lp1016
(S'70.40.0.12'
p1017
I53
tp1018
a(S'70.40.8.12'
p1019
I53
tp1020
a(S'72.42.114.12'
p1021
I53
tp1022
a(S'72.0.50.12'
p1023
I53
tp1024
asS'click'
p1025
(lp1026
(S'63.243.194.3'
p1027
I53
tp1028
a(S'72.52.71.3'
p1029
I53
tp1030
a(S'38.103.2.3'
p1031
I53
tp1032
a(S'64.96.25.53'
p1033
I53
tp1034
asS'ooo'
p1035
(lp1036
(S'192.26.92.34'
p1037
I53
tp1038
a(S'192.35.51.34'
p1039
I53
tp1040
a(S'192.31.80.34'
p1041
I53
tp1042
a(S'192.41.162.34'
p1043
I53
tp1044
a(S'192.42.93.34'
p1045
I53
tp1046
a(S'192.54.112.34'
p1047
I53
tp1048
a(S'192.5.6.34'
p1049
I53
tp1050
asS'blue'
p1051
(lp1052
(S'65.22.28.9'
p1053
I53
tp1054
a(S'65.22.30.9'
p1055
I53
tp1056
a(S'65.22.29.9'
p1057
I53
tp1058
a(S'65.22.31.9'
p1059
I53
tp1060
asS'reviews'
p1061
(lp1062
(S'37.209.196.7'
p1063
I53
tp1064
a(S'37.209.194.7'
p1065
I53
tp1066
a(S'37.209.192.7'
p1067
I53
tp1068
a(S'37.209.198.7'
p1069
I53
tp1070
asS'abb'
p1071
(lp1072
(S'192.26.92.34'
p1073
I53
tp1074
a(S'192.42.93.34'
p1075
I53
tp1076
a(S'192.31.80.34'
p1077
I53
tp1078
a(S'192.41.162.34'
p1079
I53
tp1080
a(S'192.35.51.34'
p1081
I53
tp1082
a(S'192.54.112.34'
p1083
I53
tp1084
a(S'192.5.6.34'
p1085
I53
tp1086
asS'bb'
p1087
(lp1088
(S'204.212.242.113'
p1089
I53
tp1090
a(S'200.50.92.195'
p1091
I53
tp1092
asS'cooking'
p1093
(lp1094
(S'70.40.0.10'
p1095
I53
tp1096
a(S'72.42.114.10'
p1097
I53
tp1098
a(S'70.40.8.10'
p1099
I53
tp1100
a(S'72.0.50.10'
p1101
I53
tp1102
asS'xn--mgbab2bd'
p1103
(lp1104
(S'195.253.65.11'
p1105
I53
tp1106
a(S'195.253.64.11'
p1107
I53
tp1108
a(S'195.253.65.12'
p1109
I53
tp1110
a(S'195.253.64.12'
p1111
I53
tp1112
asS'asia'
p1113
(lp1114
(S'199.254.30.1'
p1115
I53
tp1116
a(S'199.254.28.1'
p1117
I53
tp1118
a(S'199.249.114.1'
p1119
I53
tp1120
a(S'199.254.29.1'
p1121
I53
tp1122
a(S'199.19.55.1'
p1123
I53
tp1124
a(S'199.249.122.1'
p1125
I53
tp1126
asS'xn--xkc2dl3a5ee0h'
p1127
(lp1128
(S'199.254.59.1'
p1129
I53
tp1130
a(S'199.254.62.1'
p1131
I53
tp1132
a(S'125.19.40.90'
p1133
I53
tp1134
a(S'199.254.60.1'
p1135
I53
tp1136
a(S'199.249.125.1'
p1137
I53
tp1138
a(S'115.249.164.142'
p1139
I53
tp1140
a(S'199.254.61.1'
p1141
I53
tp1142
a(S'199.249.117.1'
p1143
I53
tp1144
asS'capital'
p1145
(lp1146
(S'37.209.196.7'
p1147
I53
tp1148
a(S'37.209.194.7'
p1149
I53
tp1150
a(S'37.209.192.7'
p1151
I53
tp1152
a(S'37.209.198.7'
p1153
I53
tp1154
asS'citic'
p1155
(lp1156
(S'1.8.240.1'
p1157
I53
tp1158
a(S'1.8.242.1'
p1159
I53
tp1160
asS'net'
p1161
(lp1162
(S'192.26.92.30'
p1163
I53
tp1164
a(S'192.33.14.30'
p1165
I53
tp1166
a(S'192.31.80.30'
p1167
I53
tp1168
a(S'192.48.79.30'
p1169
I53
tp1170
a(S'192.55.83.30'
p1171
I53
tp1172
a(S'192.35.51.30'
p1173
I53
tp1174
a(S'192.54.112.30'
p1175
I53
tp1176
a(S'192.41.162.30'
p1177
I53
tp1178
a(S'192.5.6.30'
p1179
I53
tp1180
a(S'192.12.94.30'
p1181
I53
tp1182
a(S'192.42.93.30'
p1183
I53
tp1184
a(S'192.52.178.30'
p1185
I53
tp1186
a(S'192.43.172.30'
p1187
I53
tp1188
asS'neustar'
p1189
(lp1190
(S'199.7.67.250'
p1191
I53
tp1192
a(S'198.133.199.250'
p1193
I53
tp1194
a(S'204.74.112.250'
p1195
I53
tp1196
a(S'204.74.113.250'
p1197
I53
tp1198
a(S'199.7.66.250'
p1199
I53
tp1200
a(S'192.100.59.250'
p1201
I53
tp1202
asS'racing'
p1203
(lp1204
(S'156.154.172.33'
p1205
I53
tp1206
a(S'156.154.170.33'
p1207
I53
tp1208
a(S'156.154.173.33'
p1209
I53
tp1210
a(S'156.154.169.33'
p1211
I53
tp1212
a(S'156.154.171.33'
p1213
I53
tp1214
a(S'156.154.174.33'
p1215
I53
tp1216
asS'dental'
p1217
(lp1218
(S'37.209.196.7'
p1219
I53
tp1220
a(S'37.209.194.7'
p1221
I53
tp1222
a(S'37.209.192.7'
p1223
I53
tp1224
a(S'37.209.198.7'
p1225
I53
tp1226
asS'xn--3e0b707e'
p1227
(lp1228
(S'203.83.159.1'
p1229
I53
tp1230
a(S'203.248.246.220'
p1231
I53
tp1232
a(S'218.38.181.90'
p1233
I53
tp1234
a(S'61.74.75.1'
p1235
I53
tp1236
a(S'202.31.190.1'
p1237
I53
tp1238
a(S'202.30.124.100'
p1239
I53
tp1240
asS'ruhr'
p1241
(lp1242
(S'195.253.64.12'
p1243
I53
tp1244
a(S'195.253.64.11'
p1245
I53
tp1246
a(S'195.253.65.12'
p1247
I53
tp1248
a(S'195.253.65.11'
p1249
I53
tp1250
asS'degree'
p1251
(lp1252
(S'37.209.196.7'
p1253
I53
tp1254
a(S'37.209.194.7'
p1255
I53
tp1256
a(S'37.209.192.7'
p1257
I53
tp1258
a(S'37.209.198.7'
p1259
I53
tp1260
asS'exchange'
p1261
(lp1262
(S'37.209.196.7'
p1263
I53
tp1264
a(S'37.209.194.7'
p1265
I53
tp1266
a(S'37.209.192.7'
p1267
I53
tp1268
a(S'37.209.198.7'
p1269
I53
tp1270
asS'capetown'
p1271
(lp1272
(S'66.135.62.20'
p1273
I53
tp1274
a(S'206.223.136.200'
p1275
I53
tp1276
a(S'194.146.106.74'
p1277
I53
tp1278
asS'marketing'
p1279
(lp1280
(S'37.209.196.7'
p1281
I53
tp1282
a(S'37.209.194.7'
p1283
I53
tp1284
a(S'37.209.192.7'
p1285
I53
tp1286
a(S'37.209.198.7'
p1287
I53
tp1288
asS'here'
p1289
(lp1290
(S'216.239.32.105'
p1291
I53
tp1292
a(S'216.239.38.105'
p1293
I53
tp1294
a(S'216.239.36.105'
p1295
I53
tp1296
a(S'216.239.60.105'
p1297
I53
tp1298
a(S'216.239.34.105'
p1299
I53
tp1300
asS'okinawa'
p1301
(lp1302
(S'65.22.166.1'
p1303
I53
tp1304
a(S'120.29.254.11'
p1305
I53
tp1306
a(S'65.22.167.1'
p1307
I53
tp1308
a(S'120.29.252.11'
p1309
I53
tp1310
a(S'65.22.165.1'
p1311
I53
tp1312
asS'lgbt'
p1313
(lp1314
(S'65.22.32.1'
p1315
I53
tp1316
a(S'65.22.35.1'
p1317
I53
tp1318
a(S'65.22.33.1'
p1319
I53
tp1320
a(S'65.22.34.1'
p1321
I53
tp1322
asS'xn--kprw13d'
p1323
(lp1324
(S'211.20.231.11'
p1325
I53
tp1326
a(S'220.229.225.195'
p1327
I53
tp1328
a(S'163.28.1.10'
p1329
I53
tp1330
a(S'202.12.31.141'
p1331
I53
tp1332
a(S'203.119.3.1'
p1333
I53
tp1334
a(S'210.17.9.230'
p1335
I53
tp1336
asS'xn--80adxhks'
p1337
(lp1338
(S'193.232.142.17'
p1339
I53
tp1340
a(S'194.85.252.62'
p1341
I53
tp1342
a(S'193.232.156.17'
p1343
I53
tp1344
a(S'194.190.124.17'
p1345
I53
tp1346
a(S'193.232.128.6'
p1347
I53
tp1348
asS'meet'
p1349
(lp1350
(S'65.22.68.25'
p1351
I53
tp1352
a(S'65.22.70.25'
p1353
I53
tp1354
a(S'65.22.69.25'
p1355
I53
tp1356
a(S'65.22.71.25'
p1357
I53
tp1358
asS'active'
p1359
(lp1360
(S'65.22.213.25'
p1361
I53
tp1362
a(S'65.22.214.25'
p1363
I53
tp1364
a(S'65.22.212.25'
p1365
I53
tp1366
a(S'65.22.215.25'
p1367
I53
tp1368
asS'sexy'
p1369
(lp1370
(S'64.96.25.53'
p1371
I53
tp1372
a(S'72.52.71.3'
p1373
I53
tp1374
a(S'38.103.2.3'
p1375
I53
tp1376
a(S'63.243.194.3'
p1377
I53
tp1378
asS'xn--qcka1pmc'
p1379
(lp1380
(S'216.239.32.105'
p1381
I53
tp1382
a(S'216.239.38.105'
p1383
I53
tp1384
a(S'216.239.36.105'
p1385
I53
tp1386
a(S'216.239.60.105'
p1387
I53
tp1388
a(S'216.239.34.105'
p1389
I53
tp1390
asS'zone'
p1391
(lp1392
(S'37.209.196.7'
p1393
I53
tp1394
a(S'37.209.194.7'
p1395
I53
tp1396
a(S'37.209.192.7'
p1397
I53
tp1398
a(S'37.209.198.7'
p1399
I53
tp1400
asS'auction'
p1401
(lp1402
(S'37.209.196.7'
p1403
I53
tp1404
a(S'37.209.194.7'
p1405
I53
tp1406
a(S'37.209.192.7'
p1407
I53
tp1408
a(S'37.209.198.7'
p1409
I53
tp1410
asS'gent'
p1411
(lp1412
(S'195.253.64.7'
p1413
I53
tp1414
a(S'89.207.184.98'
p1415
I53
tp1416
a(S'195.253.64.4'
p1417
I53
tp1418
a(S'54.247.68.190'
p1419
I53
tp1420
asS'casino'
p1421
(lp1422
(S'37.209.196.7'
p1423
I53
tp1424
a(S'37.209.194.7'
p1425
I53
tp1426
a(S'37.209.192.7'
p1427
I53
tp1428
a(S'37.209.198.7'
p1429
I53
tp1430
asS'gle'
p1431
(lp1432
(S'216.239.32.105'
p1433
I53
tp1434
a(S'216.239.38.105'
p1435
I53
tp1436
a(S'216.239.36.105'
p1437
I53
tp1438
a(S'216.239.60.105'
p1439
I53
tp1440
a(S'216.239.34.105'
p1441
I53
tp1442
asS'mx'
p1443
(lp1444
(S'207.248.68.1'
p1445
I53
tp1446
a(S'200.94.176.1'
p1447
I53
tp1448
a(S'200.23.1.1'
p1449
I53
tp1450
a(S'189.201.244.1'
p1451
I53
tp1452
a(S'201.131.252.1'
p1453
I53
tp1454
a(S'192.100.224.1'
p1455
I53
tp1456
asS'credit'
p1457
(lp1458
(S'37.209.196.7'
p1459
I53
tp1460
a(S'37.209.194.7'
p1461
I53
tp1462
a(S'37.209.192.7'
p1463
I53
tp1464
a(S'37.209.198.7'
p1465
I53
tp1466
asS'boo'
p1467
(lp1468
(S'216.239.32.105'
p1469
I53
tp1470
a(S'216.239.38.105'
p1471
I53
tp1472
a(S'216.239.36.105'
p1473
I53
tp1474
a(S'216.239.60.105'
p1475
I53
tp1476
a(S'216.239.34.105'
p1477
I53
tp1478
asS'domains'
p1479
(lp1480
(S'37.209.196.7'
p1481
I53
tp1482
a(S'37.209.194.7'
p1483
I53
tp1484
a(S'37.209.192.7'
p1485
I53
tp1486
a(S'37.209.198.7'
p1487
I53
tp1488
asS'link'
p1489
(lp1490
(S'64.96.25.53'
p1491
I53
tp1492
a(S'72.52.71.3'
p1493
I53
tp1494
a(S'38.103.2.3'
p1495
I53
tp1496
a(S'63.243.194.3'
p1497
I53
tp1498
asS'bnpparibas'
p1499
(lp1500
(S'65.22.64.9'
p1501
I53
tp1502
a(S'65.22.66.9'
p1503
I53
tp1504
a(S'65.22.65.9'
p1505
I53
tp1506
a(S'65.22.67.9'
p1507
I53
tp1508
asS'love'
p1509
(lp1510
(S'194.0.2.2'
p1511
I53
tp1512
a(S'185.24.64.62'
p1513
I53
tp1514
a(S'194.0.1.45'
p1515
I53
tp1516
a(S'194.169.218.62'
p1517
I53
tp1518
asS'va'
p1519
(lp1520
(S'212.77.0.110'
p1521
I53
tp1522
a(S'193.0.9.123'
p1523
I53
tp1524
a(S'192.12.192.5'
p1525
I53
tp1526
a(S'193.201.40.6'
p1527
I53
tp1528
a(S'193.201.40.7'
p1529
I53
tp1530
a(S'212.77.0.2'
p1531
I53
tp1532
asS'caravan'
p1533
(lp1534
(S'156.154.156.32'
p1535
I53
tp1536
a(S'156.154.158.32'
p1537
I53
tp1538
a(S'156.154.145.32'
p1539
I53
tp1540
a(S'156.154.159.32'
p1541
I53
tp1542
a(S'156.154.157.32'
p1543
I53
tp1544
a(S'156.154.144.32'
p1545
I53
tp1546
asS'xn--kcrx77d1x4a'
p1547
(lp1548
(S'37.209.198.9'
p1549
I53
tp1550
a(S'37.209.192.9'
p1551
I53
tp1552
a(S'37.209.194.9'
p1553
I53
tp1554
a(S'37.209.196.9'
p1555
I53
tp1556
asS'limo'
p1557
(lp1558
(S'37.209.196.7'
p1559
I53
tp1560
a(S'37.209.194.7'
p1561
I53
tp1562
a(S'37.209.192.7'
p1563
I53
tp1564
a(S'37.209.198.7'
p1565
I53
tp1566
asS'toys'
p1567
(lp1568
(S'37.209.196.7'
p1569
I53
tp1570
a(S'37.209.194.7'
p1571
I53
tp1572
a(S'37.209.192.7'
p1573
I53
tp1574
a(S'37.209.198.7'
p1575
I53
tp1576
asS'xn--cg4bki'
p1577
(lp1578
(S'203.83.159.1'
p1579
I53
tp1580
a(S'218.38.181.90'
p1581
I53
tp1582
a(S'203.248.246.220'
p1583
I53
tp1584
a(S'61.74.75.1'
p1585
I53
tp1586
a(S'202.31.190.1'
p1587
I53
tp1588
a(S'202.30.124.100'
p1589
I53
tp1590
asS'tools'
p1591
(lp1592
(S'37.209.196.7'
p1593
I53
tp1594
a(S'37.209.194.7'
p1595
I53
tp1596
a(S'37.209.192.7'
p1597
I53
tp1598
a(S'37.209.198.7'
p1599
I53
tp1600
asS'market'
p1601
(lp1602
(S'37.209.196.7'
p1603
I53
tp1604
a(S'37.209.194.7'
p1605
I53
tp1606
a(S'37.209.192.7'
p1607
I53
tp1608
a(S'37.209.198.7'
p1609
I53
tp1610
asS've'
p1611
(lp1612
(S'150.185.130.16'
p1613
I53
tp1614
a(S'150.188.228.4'
p1615
I53
tp1616
a(S'150.188.228.5'
p1617
I53
tp1618
a(S'192.5.4.1'
p1619
I53
tp1620
a(S'190.9.129.56'
p1621
I53
tp1622
a(S'200.1.123.14'
p1623
I53
tp1624
asS'saxo'
p1625
(lp1626
(S'37.209.198.9'
p1627
I53
tp1628
a(S'37.209.192.9'
p1629
I53
tp1630
a(S'37.209.194.9'
p1631
I53
tp1632
a(S'37.209.196.9'
p1633
I53
tp1634
asS'estate'
p1635
(lp1636
(S'37.209.196.7'
p1637
I53
tp1638
a(S'37.209.194.7'
p1639
I53
tp1640
a(S'37.209.192.7'
p1641
I53
tp1642
a(S'37.209.198.7'
p1643
I53
tp1644
asS'zip'
p1645
(lp1646
(S'216.239.32.105'
p1647
I53
tp1648
a(S'216.239.38.105'
p1649
I53
tp1650
a(S'216.239.36.105'
p1651
I53
tp1652
a(S'216.239.60.105'
p1653
I53
tp1654
a(S'216.239.34.105'
p1655
I53
tp1656
asS'army'
p1657
(lp1658
(S'37.209.196.7'
p1659
I53
tp1660
a(S'37.209.194.7'
p1661
I53
tp1662
a(S'37.209.192.7'
p1663
I53
tp1664
a(S'37.209.198.7'
p1665
I53
tp1666
asS'mma'
p1667
(lp1668
(S'194.0.36.1'
p1669
I53
tp1670
a(S'194.146.106.46'
p1671
I53
tp1672
a(S'194.0.9.1'
p1673
I53
tp1674
asS'xn--h2brj9c'
p1675
(lp1676
(S'199.254.60.1'
p1677
I53
tp1678
a(S'199.254.62.1'
p1679
I53
tp1680
a(S'125.19.40.90'
p1681
I53
tp1682
a(S'199.254.59.1'
p1683
I53
tp1684
a(S'199.249.125.1'
p1685
I53
tp1686
a(S'115.249.164.142'
p1687
I53
tp1688
a(S'199.254.61.1'
p1689
I53
tp1690
a(S'199.249.117.1'
p1691
I53
tp1692
asS'nagoya'
p1693
(lp1694
(S'65.22.166.1'
p1695
I53
tp1696
a(S'120.29.254.11'
p1697
I53
tp1698
a(S'65.22.167.1'
p1699
I53
tp1700
a(S'120.29.252.11'
p1701
I53
tp1702
a(S'65.22.165.1'
p1703
I53
tp1704
asS'xn--mgbx4cd0ab'
p1705
(lp1706
(S'137.189.6.21'
p1707
I53
tp1708
a(S'192.228.180.5'
p1709
I53
tp1710
a(S'194.0.1.30'
p1711
I53
tp1712
a(S'61.6.38.139'
p1713
I53
tp1714
a(S'192.134.0.49'
p1715
I53
tp1716
a(S'192.228.128.16'
p1717
I53
tp1718
asS'properties'
p1719
(lp1720
(S'37.209.196.7'
p1721
I53
tp1722
a(S'37.209.194.7'
p1723
I53
tp1724
a(S'37.209.192.7'
p1725
I53
tp1726
a(S'37.209.198.7'
p1727
I53
tp1728
asS'goldpoint'
p1729
(lp1730
(S'65.22.166.1'
p1731
I53
tp1732
a(S'120.29.254.11'
p1733
I53
tp1734
a(S'65.22.167.1'
p1735
I53
tp1736
a(S'120.29.252.11'
p1737
I53
tp1738
a(S'65.22.165.1'
p1739
I53
tp1740
asS'xn--9et52u'
p1741
(lp1742
(S'119.167.248.154'
p1743
I53
tp1744
asS'camera'
p1745
(lp1746
(S'37.209.196.7'
p1747
I53
tp1748
a(S'37.209.194.7'
p1749
I53
tp1750
a(S'37.209.192.7'
p1751
I53
tp1752
a(S'37.209.198.7'
p1753
I53
tp1754
asS'dnp'
p1755
(lp1756
(S'65.22.166.1'
p1757
I53
tp1758
a(S'120.29.254.11'
p1759
I53
tp1760
a(S'65.22.167.1'
p1761
I53
tp1762
a(S'120.29.252.11'
p1763
I53
tp1764
a(S'65.22.165.1'
p1765
I53
tp1766
asS'xn--vermgensberater-ctb'
p1767
(lp1768
(S'203.119.88.75'
p1769
I53
tp1770
a(S'203.119.88.76'
p1771
I53
tp1772
a(S'72.0.48.76'
p1773
I53
tp1774
a(S'72.0.48.75'
p1775
I53
tp1776
asS'markets'
p1777
(lp1778
(S'192.26.92.34'
p1779
I53
tp1780
a(S'192.31.80.34'
p1781
I53
tp1782
a(S'192.41.162.34'
p1783
I53
tp1784
a(S'192.35.51.34'
p1785
I53
tp1786
a(S'192.42.93.34'
p1787
I53
tp1788
a(S'192.5.6.34'
p1789
I53
tp1790
a(S'192.54.112.34'
p1791
I53
tp1792
asS'today'
p1793
(lp1794
(S'37.209.196.7'
p1795
I53
tp1796
a(S'37.209.194.7'
p1797
I53
tp1798
a(S'37.209.192.7'
p1799
I53
tp1800
a(S'37.209.198.7'
p1801
I53
tp1802
asS'th'
p1803
(lp1804
(S'202.28.1.22'
p1805
I53
tp1806
a(S'199.6.1.30'
p1807
I53
tp1808
a(S'202.28.0.1'
p1809
I53
tp1810
a(S'149.20.64.3'
p1811
I53
tp1812
a(S'193.0.9.116'
p1813
I53
tp1814
a(S'61.19.242.38'
p1815
I53
tp1816
a(S'194.0.1.28'
p1817
I53
tp1818
asS'club'
p1819
(lp1820
(S'156.154.156.215'
p1821
I53
tp1822
a(S'156.154.144.215'
p1823
I53
tp1824
a(S'156.154.157.215'
p1825
I53
tp1826
a(S'156.154.145.215'
p1827
I53
tp1828
a(S'156.154.159.215'
p1829
I53
tp1830
a(S'156.154.158.215'
p1831
I53
tp1832
asS'ua'
p1833
(lp1834
(S'195.47.253.1'
p1835
I53
tp1836
a(S'204.61.216.12'
p1837
I53
tp1838
a(S'216.218.215.27'
p1839
I53
tp1840
a(S'194.0.1.9'
p1841
I53
tp1842
a(S'193.0.9.121'
p1843
I53
tp1844
a(S'192.5.4.1'
p1845
I53
tp1846
asS'company'
p1847
(lp1848
(S'37.209.196.7'
p1849
I53
tp1850
a(S'37.209.194.7'
p1851
I53
tp1852
a(S'37.209.192.7'
p1853
I53
tp1854
a(S'37.209.198.7'
p1855
I53
tp1856
asS'site'
p1857
(lp1858
(S'185.24.64.61'
p1859
I53
tp1860
a(S'194.169.218.61'
p1861
I53
tp1862
a(S'194.0.1.45'
p1863
I53
tp1864
a(S'194.0.2.2'
p1865
I53
tp1866
asS'glass'
p1867
(lp1868
(S'37.209.196.7'
p1869
I53
tp1870
a(S'37.209.194.7'
p1871
I53
tp1872
a(S'37.209.192.7'
p1873
I53
tp1874
a(S'37.209.198.7'
p1875
I53
tp1876
asS'berlin'
p1877
(lp1878
(S'194.0.24.5'
p1879
I53
tp1880
a(S'194.0.25.16'
p1881
I53
tp1882
a(S'194.0.26.5'
p1883
I53
tp1884
asS'xn--czru2d'
p1885
(lp1886
(S'182.131.23.22'
p1887
I53
tp1888
asS'adult'
p1889
(lp1890
(S'199.115.155.1'
p1891
I53
tp1892
a(S'199.115.156.1'
p1893
I53
tp1894
a(S'199.115.152.1'
p1895
I53
tp1896
a(S'199.115.157.1'
p1897
I53
tp1898
a(S'199.115.153.1'
p1899
I53
tp1900
a(S'199.115.154.1'
p1901
I53
tp1902
asS'td'
p1903
(lp1904
(S'41.74.44.43'
p1905
I53
tp1906
a(S'192.134.0.49'
p1907
I53
tp1908
a(S'196.216.168.31'
p1909
I53
tp1910
asS'xn--fiqz9s'
p1911
(lp1912
(S'125.208.36.1'
p1913
I53
tp1914
a(S'125.208.33.1'
p1915
I53
tp1916
a(S'125.208.34.1'
p1917
I53
tp1918
a(S'125.208.32.1'
p1919
I53
tp1920
a(S'125.208.35.1'
p1921
I53
tp1922
asS'fly'
p1923
(lp1924
(S'216.239.32.105'
p1925
I53
tp1926
a(S'216.239.38.105'
p1927
I53
tp1928
a(S'216.239.36.105'
p1929
I53
tp1930
a(S'216.239.60.105'
p1931
I53
tp1932
a(S'216.239.34.105'
p1933
I53
tp1934
asS'md'
p1935
(lp1936
(S'217.26.144.15'
p1937
I53
tp1938
a(S'86.106.212.21'
p1939
I53
tp1940
a(S'192.162.16.19'
p1941
I53
tp1942
a(S'193.0.9.93'
p1943
I53
tp1944
a(S'204.152.184.64'
p1945
I53
tp1946
a(S'217.26.144.5'
p1947
I53
tp1948
asS'mg'
p1949
(lp1950
(S'208.78.71.96'
p1951
I53
tp1952
a(S'193.50.53.3'
p1953
I53
tp1954
a(S'204.13.251.96'
p1955
I53
tp1956
a(S'87.98.132.231'
p1957
I53
tp1958
a(S'196.192.32.2'
p1959
I53
tp1960
a(S'204.13.250.96'
p1961
I53
tp1962
a(S'196.192.42.153'
p1963
I53
tp1964
a(S'193.0.9.94'
p1965
I53
tp1966
a(S'208.78.70.96'
p1967
I53
tp1968
asS'ma'
p1969
(lp1970
(S'81.192.171.115'
p1971
I53
tp1972
a(S'193.0.9.91'
p1973
I53
tp1974
a(S'81.192.171.83'
p1975
I53
tp1976
a(S'193.51.208.13'
p1977
I53
tp1978
a(S'81.192.171.84'
p1979
I53
tp1980
a(S'192.93.0.4'
p1981
I53
tp1982
asS'ibm'
p1983
(lp1984
(S'37.209.198.9'
p1985
I53
tp1986
a(S'37.209.192.9'
p1987
I53
tp1988
a(S'37.209.194.9'
p1989
I53
tp1990
a(S'37.209.196.9'
p1991
I53
tp1992
asS'mc'
p1993
(lp1994
(S'195.78.19.216'
p1995
I53
tp1996
a(S'85.31.217.131'
p1997
I53
tp1998
a(S'193.0.9.92'
p1999
I53
tp2000
asS'tokyo'
p2001
(lp2002
(S'65.22.166.1'
p2003
I53
tp2004
a(S'120.29.254.11'
p2005
I53
tp2006
a(S'65.22.167.1'
p2007
I53
tp2008
a(S'120.29.252.11'
p2009
I53
tp2010
a(S'65.22.165.1'
p2011
I53
tp2012
asS'mm'
p2013
(lp2014
(S'203.81.64.20'
p2015
I53
tp2016
a(S'193.0.9.96'
p2017
I53
tp2018
a(S'203.81.92.10'
p2019
I53
tp2020
a(S'203.81.81.85'
p2021
I53
tp2022
asS'ml'
p2023
(lp2024
(S'185.21.170.1'
p2025
I53
tp2026
a(S'185.21.169.1'
p2027
I53
tp2028
a(S'185.21.171.1'
p2029
I53
tp2030
a(S'185.21.168.1'
p2031
I53
tp2032
asS'mo'
p2033
(lp2034
(S'202.175.87.47'
p2035
I53
tp2036
a(S'202.175.51.116'
p2037
I53
tp2038
a(S'202.175.51.115'
p2039
I53
tp2040
a(S'202.175.87.49'
p2041
I53
tp2042
a(S'202.175.87.48'
p2043
I53
tp2044
a(S'137.189.6.21'
p2045
I53
tp2046
a(S'194.0.1.17'
p2047
I53
tp2048
asS'mn'
p2049
(lp2050
(S'199.249.124.1'
p2051
I53
tp2052
a(S'199.254.60.1'
p2053
I53
tp2054
a(S'199.254.62.1'
p2055
I53
tp2056
a(S'202.131.0.10'
p2057
I53
tp2058
a(S'218.100.84.26'
p2059
I53
tp2060
a(S'202.72.241.5'
p2061
I53
tp2062
a(S'199.249.116.1'
p2063
I53
tp2064
a(S'199.254.59.1'
p2065
I53
tp2066
a(S'199.254.61.1'
p2067
I53
tp2068
a(S'202.131.224.80'
p2069
I53
tp2070
asS'sucks'
p2071
(lp2072
(S'37.209.198.10'
p2073
I53
tp2074
a(S'37.209.196.10'
p2075
I53
tp2076
a(S'37.209.194.10'
p2077
I53
tp2078
a(S'37.209.192.10'
p2079
I53
tp2080
asS'mh'
p2081
(lp2082
(S'71.163.249.97'
p2083
I53
tp2084
a(S'117.103.88.33'
p2085
I53
tp2086
asS'dev'
p2087
(lp2088
(S'216.239.32.105'
p2089
I53
tp2090
a(S'216.239.38.105'
p2091
I53
tp2092
a(S'216.239.36.105'
p2093
I53
tp2094
a(S'216.239.60.105'
p2095
I53
tp2096
a(S'216.239.34.105'
p2097
I53
tp2098
asS'cat'
p2099
(lp2100
(S'194.69.254.1'
p2101
I53
tp2102
a(S'204.61.216.20'
p2103
I53
tp2104
a(S'81.91.161.84'
p2105
I53
tp2106
a(S'194.158.74.10'
p2107
I53
tp2108
a(S'192.5.4.1'
p2109
I53
tp2110
a(S'130.59.138.49'
p2111
I53
tp2112
a(S'195.253.64.4'
p2113
I53
tp2114
a(S'84.88.0.162'
p2115
I53
tp2116
asS'mu'
p2117
(lp2118
(S'204.61.216.10'
p2119
I53
tp2120
a(S'195.253.64.5'
p2121
I53
tp2122
a(S'77.72.229.254'
p2123
I53
tp2124
a(S'193.0.9.98'
p2125
I53
tp2126
asS'mt'
p2127
(lp2128
(S'204.61.216.45'
p2129
I53
tp2130
a(S'193.188.34.241'
p2131
I53
tp2132
a(S'193.0.9.97'
p2133
I53
tp2134
a(S'193.188.47.252'
p2135
I53
tp2136
a(S'192.5.4.1'
p2137
I53
tp2138
a(S'192.93.0.4'
p2139
I53
tp2140
asS'mw'
p2141
(lp2142
(S'41.221.99.135'
p2143
I53
tp2144
a(S'202.12.28.140'
p2145
I53
tp2146
a(S'147.28.0.39'
p2147
I53
tp2148
a(S'196.45.190.9'
p2149
I53
tp2150
a(S'41.221.99.149'
p2151
I53
tp2152
a(S'193.0.9.99'
p2153
I53
tp2154
asS'mv'
p2155
(lp2156
(S'202.1.201.201'
p2157
I53
tp2158
a(S'204.61.216.24'
p2159
I53
tp2160
a(S'202.1.192.196'
p2161
I53
tp2162
asS'mq'
p2163
(lp2164
(S'213.16.20.3'
p2165
I53
tp2166
a(S'213.188.172.1'
p2167
I53
tp2168
a(S'188.165.38.14'
p2169
I53
tp2170
asS'mp'
p2171
(lp2172
(S'202.128.29.2'
p2173
I53
tp2174
a(S'75.101.133.101'
p2175
I53
tp2176
a(S'75.101.129.89'
p2177
I53
tp2178
a(S'202.128.29.135'
p2179
I53
tp2180
asS'ms'
p2181
(lp2182
(S'199.7.90.2'
p2183
I53
tp2184
a(S'204.61.216.33'
p2185
I53
tp2186
a(S'199.19.5.23'
p2187
I53
tp2188
a(S'128.223.32.35'
p2189
I53
tp2190
a(S'199.19.6.23'
p2191
I53
tp2192
asS'cal'
p2193
(lp2194
(S'216.239.32.105'
p2195
I53
tp2196
a(S'216.239.38.105'
p2197
I53
tp2198
a(S'216.239.36.105'
p2199
I53
tp2200
a(S'216.239.60.105'
p2201
I53
tp2202
a(S'216.239.34.105'
p2203
I53
tp2204
asS'cab'
p2205
(lp2206
(S'37.209.196.7'
p2207
I53
tp2208
a(S'37.209.194.7'
p2209
I53
tp2210
a(S'37.209.192.7'
p2211
I53
tp2212
a(S'37.209.198.7'
p2213
I53
tp2214
asS'my'
p2215
(lp2216
(S'61.6.38.139'
p2217
I53
tp2218
a(S'192.228.180.5'
p2219
I53
tp2220
a(S'194.0.1.30'
p2221
I53
tp2222
a(S'137.189.6.21'
p2223
I53
tp2224
a(S'192.134.0.49'
p2225
I53
tp2226
a(S'192.228.128.16'
p2227
I53
tp2228
asS'institute'
p2229
(lp2230
(S'37.209.196.7'
p2231
I53
tp2232
a(S'37.209.194.7'
p2233
I53
tp2234
a(S'37.209.192.7'
p2235
I53
tp2236
a(S'37.209.198.7'
p2237
I53
tp2238
asS'mz'
p2239
(lp2240
(S'204.61.216.14'
p2241
I53
tp2242
a(S'196.3.96.67'
p2243
I53
tp2244
a(S'196.3.96.66'
p2245
I53
tp2246
a(S'128.223.32.35'
p2247
I53
tp2248
a(S'196.3.96.69'
p2249
I53
tp2250
a(S'196.216.168.40'
p2251
I53
tp2252
asS'vodka'
p2253
(lp2254
(S'72.42.114.23'
p2255
I53
tp2256
a(S'70.40.8.23'
p2257
I53
tp2258
a(S'72.0.50.23'
p2259
I53
tp2260
a(S'70.40.0.23'
p2261
I53
tp2262
asS'wang'
p2263
(lp2264
(S'1.8.241.1'
p2265
I53
tp2266
a(S'182.131.23.22'
p2267
I53
tp2268
a(S'119.167.248.154'
p2269
I53
tp2270
a(S'1.8.242.1'
p2271
I53
tp2272
a(S'1.8.243.1'
p2273
I53
tp2274
a(S'111.12.148.111'
p2275
I53
tp2276
asS'eg'
p2277
(lp2278
(S'193.171.255.77'
p2279
I53
tp2280
a(S'193.227.1.1'
p2281
I53
tp2282
a(S'147.28.0.39'
p2283
I53
tp2284
asS'nexus'
p2285
(lp2286
(S'216.239.32.105'
p2287
I53
tp2288
a(S'216.239.38.105'
p2289
I53
tp2290
a(S'216.239.36.105'
p2291
I53
tp2292
a(S'216.239.60.105'
p2293
I53
tp2294
a(S'216.239.34.105'
p2295
I53
tp2296
asS'tax'
p2297
(lp2298
(S'37.209.196.7'
p2299
I53
tp2300
a(S'37.209.194.7'
p2301
I53
tp2302
a(S'37.209.192.7'
p2303
I53
tp2304
a(S'37.209.198.7'
p2305
I53
tp2306
asS'piaget'
p2307
(lp2308
(S'156.154.144.136'
p2309
I53
tp2310
a(S'156.154.157.136'
p2311
I53
tp2312
a(S'156.154.158.136'
p2313
I53
tp2314
a(S'156.154.156.136'
p2315
I53
tp2316
a(S'156.154.145.136'
p2317
I53
tp2318
a(S'156.154.159.136'
p2319
I53
tp2320
asS'xn--nyqy26a'
p2321
(lp2322
(S'156.154.173.74'
p2323
I53
tp2324
a(S'156.154.171.74'
p2325
I53
tp2326
a(S'156.154.172.74'
p2327
I53
tp2328
a(S'156.154.169.74'
p2329
I53
tp2330
a(S'156.154.170.74'
p2331
I53
tp2332
a(S'156.154.174.74'
p2333
I53
tp2334
asS'firmdale'
p2335
(lp2336
(S'72.42.115.1'
p2337
I53
tp2338
a(S'72.0.51.1'
p2339
I53
tp2340
asS'dabur'
p2341
(lp2342
(S'65.22.183.25'
p2343
I53
tp2344
a(S'65.22.181.25'
p2345
I53
tp2346
a(S'65.22.182.25'
p2347
I53
tp2348
a(S'65.22.180.25'
p2349
I53
tp2350
asS'clothing'
p2351
(lp2352
(S'37.209.196.7'
p2353
I53
tp2354
a(S'37.209.194.7'
p2355
I53
tp2356
a(S'37.209.192.7'
p2357
I53
tp2358
a(S'37.209.198.7'
p2359
I53
tp2360
asS'afl'
p2361
(lp2362
(S'37.209.198.9'
p2363
I53
tp2364
a(S'37.209.192.9'
p2365
I53
tp2366
a(S'37.209.194.9'
p2367
I53
tp2368
a(S'37.209.196.9'
p2369
I53
tp2370
asS'xn--fpcrj9c3d'
p2371
(lp2372
(S'199.254.60.1'
p2373
I53
tp2374
a(S'199.254.62.1'
p2375
I53
tp2376
a(S'125.19.40.90'
p2377
I53
tp2378
a(S'199.254.59.1'
p2379
I53
tp2380
a(S'199.249.125.1'
p2381
I53
tp2382
a(S'115.249.164.142'
p2383
I53
tp2384
a(S'199.254.61.1'
p2385
I53
tp2386
a(S'199.249.117.1'
p2387
I53
tp2388
asS'hiv'
p2389
(lp2390
(S'65.22.230.17'
p2391
I53
tp2392
a(S'65.22.228.17'
p2393
I53
tp2394
a(S'65.22.229.17'
p2395
I53
tp2396
a(S'65.22.231.17'
p2397
I53
tp2398
asS'guru'
p2399
(lp2400
(S'37.209.196.7'
p2401
I53
tp2402
a(S'37.209.194.7'
p2403
I53
tp2404
a(S'37.209.192.7'
p2405
I53
tp2406
a(S'37.209.198.7'
p2407
I53
tp2408
asS'technology'
p2409
(lp2410
(S'37.209.196.7'
p2411
I53
tp2412
a(S'37.209.194.7'
p2413
I53
tp2414
a(S'37.209.192.7'
p2415
I53
tp2416
a(S'37.209.198.7'
p2417
I53
tp2418
asS'travel'
p2419
(lp2420
(S'156.154.103.1'
p2421
I53
tp2422
a(S'156.154.102.1'
p2423
I53
tp2424
a(S'156.154.105.1'
p2425
I53
tp2426
a(S'156.154.101.1'
p2427
I53
tp2428
a(S'156.154.104.1'
p2429
I53
tp2430
a(S'156.154.100.1'
p2431
I53
tp2432
asS'xn--wgbh1c'
p2433
(lp2434
(S'81.10.38.11'
p2435
I53
tp2436
a(S'81.21.97.155'
p2437
I53
tp2438
a(S'81.21.99.11'
p2439
I53
tp2440
asS'xn--80aswg'
p2441
(lp2442
(S'195.253.64.12'
p2443
I53
tp2444
a(S'195.253.64.11'
p2445
I53
tp2446
a(S'195.253.65.12'
p2447
I53
tp2448
a(S'195.253.65.11'
p2449
I53
tp2450
asS'flsmidth'
p2451
(lp2452
(S'203.119.88.75'
p2453
I53
tp2454
a(S'203.119.88.76'
p2455
I53
tp2456
a(S'72.0.48.76'
p2457
I53
tp2458
a(S'72.0.48.75'
p2459
I53
tp2460
asS'zuerich'
p2461
(lp2462
(S'203.119.88.75'
p2463
I53
tp2464
a(S'203.119.88.76'
p2465
I53
tp2466
a(S'72.0.48.76'
p2467
I53
tp2468
a(S'72.0.48.75'
p2469
I53
tp2470
asS'boats'
p2471
(lp2472
(S'65.22.106.17'
p2473
I53
tp2474
a(S'65.22.105.17'
p2475
I53
tp2476
a(S'65.22.104.17'
p2477
I53
tp2478
a(S'65.22.107.17'
p2479
I53
tp2480
asS'nyc'
p2481
(lp2482
(S'156.154.157.125'
p2483
I53
tp2484
a(S'156.154.144.125'
p2485
I53
tp2486
a(S'156.154.156.125'
p2487
I53
tp2488
a(S'156.154.145.125'
p2489
I53
tp2490
a(S'156.154.159.125'
p2491
I53
tp2492
a(S'156.154.158.125'
p2493
I53
tp2494
asS'photography'
p2495
(lp2496
(S'37.209.196.7'
p2497
I53
tp2498
a(S'37.209.194.7'
p2499
I53
tp2500
a(S'37.209.192.7'
p2501
I53
tp2502
a(S'37.209.198.7'
p2503
I53
tp2504
asS'pizza'
p2505
(lp2506
(S'37.209.196.7'
p2507
I53
tp2508
a(S'37.209.194.7'
p2509
I53
tp2510
a(S'37.209.192.7'
p2511
I53
tp2512
a(S'37.209.198.7'
p2513
I53
tp2514
asS'lidl'
p2515
(lp2516
(S'195.253.64.7'
p2517
I53
tp2518
a(S'195.253.64.4'
p2519
I53
tp2520
a(S'89.207.190.18'
p2521
I53
tp2522
a(S'54.75.243.206'
p2523
I53
tp2524
asS'fr'
p2525
(lp2526
(S'194.0.36.1'
p2527
I53
tp2528
a(S'194.146.106.46'
p2529
I53
tp2530
a(S'193.176.144.22'
p2531
I53
tp2532
a(S'192.5.4.2'
p2533
I53
tp2534
a(S'194.0.9.1'
p2535
I53
tp2536
asS'de'
p2537
(lp2538
(S'194.0.0.53'
p2539
I53
tp2540
a(S'81.91.164.5'
p2541
I53
tp2542
a(S'194.246.96.1'
p2543
I53
tp2544
a(S'77.67.63.105'
p2545
I53
tp2546
a(S'194.146.107.6'
p2547
I53
tp2548
a(S'195.243.137.26'
p2549
I53
tp2550
asS'farm'
p2551
(lp2552
(S'37.209.196.7'
p2553
I53
tp2554
a(S'37.209.194.7'
p2555
I53
tp2556
a(S'37.209.192.7'
p2557
I53
tp2558
a(S'37.209.198.7'
p2559
I53
tp2560
asS'xn--mgberp4a5d4ar'
p2561
(lp2562
(S'86.111.196.9'
p2563
I53
tp2564
a(S'204.61.216.41'
p2565
I53
tp2566
a(S'212.26.18.3'
p2567
I53
tp2568
a(S'86.111.192.9'
p2569
I53
tp2570
asS'tienda'
p2571
(lp2572
(S'37.209.196.7'
p2573
I53
tp2574
a(S'37.209.194.7'
p2575
I53
tp2576
a(S'37.209.192.7'
p2577
I53
tp2578
a(S'37.209.198.7'
p2579
I53
tp2580
asS'physio'
p2581
(lp2582
(S'37.209.198.10'
p2583
I53
tp2584
a(S'37.209.196.10'
p2585
I53
tp2586
a(S'37.209.194.10'
p2587
I53
tp2588
a(S'37.209.192.10'
p2589
I53
tp2590
asS'lighting'
p2591
(lp2592
(S'37.209.196.7'
p2593
I53
tp2594
a(S'37.209.194.7'
p2595
I53
tp2596
a(S'37.209.192.7'
p2597
I53
tp2598
a(S'37.209.198.7'
p2599
I53
tp2600
asS'tv'
p2601
(lp2602
(S'192.26.92.34'
p2603
I53
tp2604
a(S'192.31.80.34'
p2605
I53
tp2606
a(S'192.41.162.34'
p2607
I53
tp2608
a(S'192.42.93.34'
p2609
I53
tp2610
a(S'192.35.51.34'
p2611
I53
tp2612
a(S'192.5.6.34'
p2613
I53
tp2614
a(S'192.54.112.34'
p2615
I53
tp2616
asS'date'
p2617
(lp2618
(S'156.154.144.46'
p2619
I53
tp2620
a(S'156.154.145.46'
p2621
I53
tp2622
a(S'156.154.157.46'
p2623
I53
tp2624
a(S'156.154.156.46'
p2625
I53
tp2626
a(S'156.154.159.46'
p2627
I53
tp2628
a(S'156.154.158.46'
p2629
I53
tp2630
asS'fi'
p2631
(lp2632
(S'193.166.4.1'
p2633
I53
tp2634
a(S'204.61.216.98'
p2635
I53
tp2636
a(S'194.146.106.26'
p2637
I53
tp2638
a(S'77.72.229.253'
p2639
I53
tp2640
a(S'194.0.1.14'
p2641
I53
tp2642
a(S'194.0.11.104'
p2643
I53
tp2644
a(S'87.239.127.198'
p2645
I53
tp2646
asS'fj'
p2647
(lp2648
(S'128.32.206.9'
p2649
I53
tp2650
a(S'198.6.1.65'
p2651
I53
tp2652
a(S'128.32.136.9'
p2653
I53
tp2654
a(S'147.28.0.39'
p2655
I53
tp2656
a(S'128.32.206.12'
p2657
I53
tp2658
a(S'144.120.8.1'
p2659
I53
tp2660
a(S'128.32.136.12'
p2661
I53
tp2662
a(S'144.120.8.10'
p2663
I53
tp2664
asS'fk'
p2665
(lp2666
(S'195.248.193.250'
p2667
I53
tp2668
a(S'141.1.27.248'
p2669
I53
tp2670
a(S'195.27.1.2'
p2671
I53
tp2672
asS'xn--czrs0t'
p2673
(lp2674
(S'37.209.196.7'
p2675
I53
tp2676
a(S'37.209.194.7'
p2677
I53
tp2678
a(S'37.209.192.7'
p2679
I53
tp2680
a(S'37.209.198.7'
p2681
I53
tp2682
asS'fm'
p2683
(lp2684
(S'199.7.66.1'
p2685
I53
tp2686
a(S'199.7.67.1'
p2687
I53
tp2688
a(S'204.74.113.1'
p2689
I53
tp2690
a(S'204.74.112.1'
p2691
I53
tp2692
a(S'198.133.199.11'
p2693
I53
tp2694
a(S'192.100.59.11'
p2695
I53
tp2696
asS'engineering'
p2697
(lp2698
(S'37.209.196.7'
p2699
I53
tp2700
a(S'37.209.194.7'
p2701
I53
tp2702
a(S'37.209.192.7'
p2703
I53
tp2704
a(S'37.209.198.7'
p2705
I53
tp2706
asS'fo'
p2707
(lp2708
(S'193.163.102.12'
p2709
I53
tp2710
a(S'193.176.144.24'
p2711
I53
tp2712
a(S'204.61.216.65'
p2713
I53
tp2714
a(S'81.91.161.88'
p2715
I53
tp2716
asS'sz'
p2717
(lp2718
(S'193.0.9.114'
p2719
I53
tp2720
a(S'41.77.232.4'
p2721
I53
tp2722
a(S'147.28.0.39'
p2723
I53
tp2724
asS'kaufen'
p2725
(lp2726
(S'37.209.196.7'
p2727
I53
tp2728
a(S'37.209.194.7'
p2729
I53
tp2730
a(S'37.209.192.7'
p2731
I53
tp2732
a(S'37.209.198.7'
p2733
I53
tp2734
asS'sx'
p2735
(lp2736
(S'192.95.19.109'
p2737
I53
tp2738
a(S'80.92.90.160'
p2739
I53
tp2740
a(S'89.207.184.65'
p2741
I53
tp2742
asS'xn--yfro4i67o'
p2743
(lp2744
(S'194.0.1.16'
p2745
I53
tp2746
a(S'204.61.216.57'
p2747
I53
tp2748
a(S'137.189.6.21'
p2749
I53
tp2750
a(S'202.12.28.140'
p2751
I53
tp2752
asS'sr'
p2753
(lp2754
(S'200.2.162.30'
p2755
I53
tp2756
a(S'200.1.159.148'
p2757
I53
tp2758
asS'sv'
p2759
(lp2760
(S'200.107.82.100'
p2761
I53
tp2762
a(S'168.243.254.1'
p2763
I53
tp2764
a(S'200.160.0.5'
p2765
I53
tp2766
a(S'137.39.1.3'
p2767
I53
tp2768
a(S'198.6.1.82'
p2769
I53
tp2770
a(S'193.0.9.112'
p2771
I53
tp2772
asS'dvag'
p2773
(lp2774
(S'203.119.88.75'
p2775
I53
tp2776
a(S'203.119.88.76'
p2777
I53
tp2778
a(S'72.0.48.76'
p2779
I53
tp2780
a(S'72.0.48.75'
p2781
I53
tp2782
asS'st'
p2783
(lp2784
(S'195.178.160.2'
p2785
I53
tp2786
a(S'198.105.223.67'
p2787
I53
tp2788
a(S'79.136.119.20'
p2789
I53
tp2790
a(S'119.252.188.97'
p2791
I53
tp2792
asS'sk'
p2793
(lp2794
(S'84.245.96.1'
p2795
I53
tp2796
a(S'194.0.45.1'
p2797
I53
tp2798
a(S'217.75.72.157'
p2799
I53
tp2800
a(S'192.5.4.1'
p2801
I53
tp2802
asS'sj'
p2803
(lp2804
(S'128.39.2.22'
p2805
I53
tp2806
a(S'193.10.252.19'
p2807
I53
tp2808
a(S'158.38.0.181'
p2809
I53
tp2810
asS'si'
p2811
(lp2812
(S'193.2.1.91'
p2813
I53
tp2814
a(S'194.146.106.62'
p2815
I53
tp2816
a(S'63.243.194.3'
p2817
I53
tp2818
a(S'130.59.10.30'
p2819
I53
tp2820
a(S'204.61.216.54'
p2821
I53
tp2822
a(S'81.91.161.101'
p2823
I53
tp2824
a(S'194.0.1.20'
p2825
I53
tp2826
a(S'192.93.0.4'
p2827
I53
tp2828
a(S'130.59.1.30'
p2829
I53
tp2830
asS'mango'
p2831
(lp2832
(S'195.253.64.12'
p2833
I53
tp2834
a(S'195.253.64.11'
p2835
I53
tp2836
a(S'195.253.65.12'
p2837
I53
tp2838
a(S'195.253.65.11'
p2839
I53
tp2840
asS'green'
p2841
(lp2842
(S'65.22.32.9'
p2843
I53
tp2844
a(S'65.22.35.9'
p2845
I53
tp2846
a(S'65.22.33.9'
p2847
I53
tp2848
a(S'65.22.34.9'
p2849
I53
tp2850
asS'mk'
p2851
(lp2852
(S'193.29.206.2'
p2853
I53
tp2854
a(S'193.2.1.91'
p2855
I53
tp2856
a(S'78.104.145.4'
p2857
I53
tp2858
a(S'194.149.137.168'
p2859
I53
tp2860
asS'sm'
p2861
(lp2862
(S'194.0.27.12'
p2863
I53
tp2864
a(S'194.183.64.10'
p2865
I53
tp2866
a(S'194.183.64.11'
p2867
I53
tp2868
a(S'193.0.9.110'
p2869
I53
tp2870
asS'healthcare'
p2871
(lp2872
(S'37.209.196.7'
p2873
I53
tp2874
a(S'37.209.194.7'
p2875
I53
tp2876
a(S'37.209.192.7'
p2877
I53
tp2878
a(S'37.209.198.7'
p2879
I53
tp2880
asS'plumbing'
p2881
(lp2882
(S'37.209.196.7'
p2883
I53
tp2884
a(S'37.209.194.7'
p2885
I53
tp2886
a(S'37.209.192.7'
p2887
I53
tp2888
a(S'37.209.198.7'
p2889
I53
tp2890
asS'sb'
p2891
(lp2892
(S'204.61.216.31'
p2893
I53
tp2894
a(S'208.78.70.83'
p2895
I53
tp2896
a(S'208.78.71.83'
p2897
I53
tp2898
a(S'192.5.4.1'
p2899
I53
tp2900
asS'rentals'
p2901
(lp2902
(S'37.209.196.7'
p2903
I53
tp2904
a(S'37.209.194.7'
p2905
I53
tp2906
a(S'37.209.192.7'
p2907
I53
tp2908
a(S'37.209.198.7'
p2909
I53
tp2910
asS'sg'
p2911
(lp2912
(S'194.0.1.16'
p2913
I53
tp2914
a(S'204.61.216.57'
p2915
I53
tp2916
a(S'137.189.6.21'
p2917
I53
tp2918
a(S'202.12.28.140'
p2919
I53
tp2920
asS'se'
p2921
(lp2922
(S'192.36.144.107'
p2923
I53
tp2924
a(S'81.228.10.57'
p2925
I53
tp2926
a(S'81.228.8.16'
p2927
I53
tp2928
a(S'130.239.5.114'
p2929
I53
tp2930
a(S'199.254.63.1'
p2931
I53
tp2932
a(S'192.71.53.53'
p2933
I53
tp2934
a(S'194.146.106.22'
p2935
I53
tp2936
a(S'192.36.135.107'
p2937
I53
tp2938
a(S'192.36.133.107'
p2939
I53
tp2940
asS'sd'
p2941
(lp2942
(S'196.29.166.134'
p2943
I53
tp2944
a(S'204.61.216.97'
p2945
I53
tp2946
a(S'196.216.168.26'
p2947
I53
tp2948
a(S'213.42.0.226'
p2949
I53
tp2950
a(S'196.29.164.14'
p2951
I53
tp2952
a(S'66.135.62.20'
p2953
I53
tp2954
a(S'196.29.180.14'
p2955
I53
tp2956
a(S'193.0.9.109'
p2957
I53
tp2958
a(S'195.229.0.186'
p2959
I53
tp2960
asS'feedback'
p2961
(lp2962
(S'194.169.218.50'
p2963
I53
tp2964
a(S'194.0.2.2'
p2965
I53
tp2966
a(S'194.0.1.45'
p2967
I53
tp2968
a(S'185.24.64.50'
p2969
I53
tp2970
asS'xn--b4w605ferd'
p2971
(lp2972
(S'65.22.140.1'
p2973
I53
tp2974
a(S'65.22.142.1'
p2975
I53
tp2976
a(S'65.22.141.1'
p2977
I53
tp2978
a(S'65.22.143.1'
p2979
I53
tp2980
asS'kyoto'
p2981
(lp2982
(S'65.22.166.1'
p2983
I53
tp2984
a(S'120.29.254.11'
p2985
I53
tp2986
a(S'65.22.167.1'
p2987
I53
tp2988
a(S'120.29.252.11'
p2989
I53
tp2990
a(S'65.22.165.1'
p2991
I53
tp2992
asS'wedding'
p2993
(lp2994
(S'72.42.114.25'
p2995
I53
tp2996
a(S'70.40.8.25'
p2997
I53
tp2998
a(S'72.0.50.25'
p2999
I53
tp3000
a(S'70.40.0.25'
p3001
I53
tp3002
asS'trade'
p3003
(lp3004
(S'156.154.156.165'
p3005
I53
tp3006
a(S'156.154.159.165'
p3007
I53
tp3008
a(S'156.154.157.165'
p3009
I53
tp3010
a(S'156.154.145.165'
p3011
I53
tp3012
a(S'156.154.158.165'
p3013
I53
tp3014
a(S'156.154.144.165'
p3015
I53
tp3016
asS'barclays'
p3017
(lp3018
(S'37.209.198.9'
p3019
I53
tp3020
a(S'37.209.192.9'
p3021
I53
tp3022
a(S'37.209.194.9'
p3023
I53
tp3024
a(S'37.209.196.9'
p3025
I53
tp3026
asS'london'
p3027
(lp3028
(S'70.40.0.11'
p3029
I53
tp3030
a(S'72.42.114.11'
p3031
I53
tp3032
a(S'72.0.50.11'
p3033
I53
tp3034
a(S'70.40.8.11'
p3035
I53
tp3036
asS'xn--d1alf'
p3037
(lp3038
(S'193.29.206.2'
p3039
I53
tp3040
a(S'193.2.1.91'
p3041
I53
tp3042
a(S'78.104.145.4'
p3043
I53
tp3044
a(S'194.149.137.168'
p3045
I53
tp3046
asS'mtpc'
p3047
(lp3048
(S'65.22.166.1'
p3049
I53
tp3050
a(S'120.29.254.11'
p3051
I53
tp3052
a(S'65.22.167.1'
p3053
I53
tp3054
a(S'120.29.252.11'
p3055
I53
tp3056
a(S'65.22.165.1'
p3057
I53
tp3058
asS'industries'
p3059
(lp3060
(S'37.209.196.7'
p3061
I53
tp3062
a(S'37.209.194.7'
p3063
I53
tp3064
a(S'37.209.192.7'
p3065
I53
tp3066
a(S'37.209.198.7'
p3067
I53
tp3068
asS'style'
p3069
(lp3070
(S'37.209.196.7'
p3071
I53
tp3072
a(S'37.209.194.7'
p3073
I53
tp3074
a(S'37.209.192.7'
p3075
I53
tp3076
a(S'37.209.198.7'
p3077
I53
tp3078
asS'lb'
p3079
(lp3080
(S'203.119.56.132'
p3081
I53
tp3082
a(S'193.188.128.14'
p3083
I53
tp3084
a(S'147.28.0.39'
p3085
I53
tp3086
a(S'77.72.229.254'
p3087
I53
tp3088
asS'lc'
p3089
(lp3090
(S'199.249.124.1'
p3091
I53
tp3092
a(S'199.254.60.1'
p3093
I53
tp3094
a(S'199.254.62.1'
p3095
I53
tp3096
a(S'199.249.116.1'
p3097
I53
tp3098
a(S'199.254.59.1'
p3099
I53
tp3100
a(S'199.254.61.1'
p3101
I53
tp3102
asS'fit'
p3103
(lp3104
(S'70.40.0.18'
p3105
I53
tp3106
a(S'72.42.114.18'
p3107
I53
tp3108
a(S'70.40.8.18'
p3109
I53
tp3110
a(S'72.0.50.18'
p3111
I53
tp3112
asS'how'
p3113
(lp3114
(S'216.239.32.105'
p3115
I53
tp3116
a(S'216.239.38.105'
p3117
I53
tp3118
a(S'216.239.36.105'
p3119
I53
tp3120
a(S'216.239.60.105'
p3121
I53
tp3122
a(S'216.239.34.105'
p3123
I53
tp3124
asS'sale'
p3125
(lp3126
(S'37.209.196.7'
p3127
I53
tp3128
a(S'37.209.194.7'
p3129
I53
tp3130
a(S'37.209.192.7'
p3131
I53
tp3132
a(S'37.209.198.7'
p3133
I53
tp3134
asS'lk'
p3135
(lp3136
(S'204.61.216.27'
p3137
I53
tp3138
a(S'192.248.1.162'
p3139
I53
tp3140
a(S'203.94.66.129'
p3141
I53
tp3142
a(S'192.248.8.17'
p3143
I53
tp3144
a(S'202.129.235.229'
p3145
I53
tp3146
a(S'123.231.6.18'
p3147
I53
tp3148
a(S'193.0.9.88'
p3149
I53
tp3150
a(S'128.10.2.5'
p3151
I53
tp3152
a(S'203.143.29.3'
p3153
I53
tp3154
asS'li'
p3155
(lp3156
(S'130.59.1.80'
p3157
I53
tp3158
a(S'200.160.0.5'
p3159
I53
tp3160
a(S'147.28.0.39'
p3161
I53
tp3162
a(S'194.0.17.1'
p3163
I53
tp3164
a(S'194.146.106.14'
p3165
I53
tp3166
a(S'130.59.211.10'
p3167
I53
tp3168
a(S'194.42.48.120'
p3169
I53
tp3170
asS'lv'
p3171
(lp3172
(S'194.0.48.1'
p3173
I53
tp3174
a(S'92.240.70.1'
p3175
I53
tp3176
a(S'192.36.125.2'
p3177
I53
tp3178
a(S'194.0.8.1'
p3179
I53
tp3180
a(S'194.0.1.24'
p3181
I53
tp3182
a(S'193.0.9.89'
p3183
I53
tp3184
asS'lt'
p3185
(lp3186
(S'194.0.1.4'
p3187
I53
tp3188
a(S'194.0.18.1'
p3189
I53
tp3190
a(S'194.0.20.1'
p3191
I53
tp3192
a(S'195.8.218.131'
p3193
I53
tp3194
a(S'194.0.3.1'
p3195
I53
tp3196
a(S'194.0.19.1'
p3197
I53
tp3198
asS'lu'
p3199
(lp3200
(S'194.0.23.5'
p3201
I53
tp3202
a(S'194.146.106.66'
p3203
I53
tp3204
a(S'158.64.229.18'
p3205
I53
tp3206
a(S'81.91.161.100'
p3207
I53
tp3208
a(S'194.0.42.42'
p3209
I53
tp3210
a(S'194.0.1.13'
p3211
I53
tp3212
a(S'77.72.229.247'
p3213
I53
tp3214
asS'lr'
p3215
(lp3216
(S'146.231.128.1'
p3217
I53
tp3218
a(S'147.28.0.39'
p3219
I53
tp3220
a(S'77.72.229.254'
p3221
I53
tp3222
asS'ls'
p3223
(lp3224
(S'147.28.0.34'
p3225
I53
tp3226
a(S'196.216.168.70'
p3227
I53
tp3228
a(S'146.231.128.1'
p3229
I53
tp3230
a(S'204.61.216.28'
p3231
I53
tp3232
asS'wales'
p3233
(lp3234
(S'156.154.103.3'
p3235
I53
tp3236
a(S'156.154.102.3'
p3237
I53
tp3238
a(S'195.66.240.130'
p3239
I53
tp3240
a(S'217.79.164.131'
p3241
I53
tp3242
a(S'156.154.101.3'
p3243
I53
tp3244
a(S'194.83.244.131'
p3245
I53
tp3246
a(S'213.246.167.131'
p3247
I53
tp3248
a(S'156.154.100.3'
p3249
I53
tp3250
a(S'213.248.254.130'
p3251
I53
tp3252
a(S'212.121.40.130'
p3253
I53
tp3254
asS'holiday'
p3255
(lp3256
(S'37.209.196.7'
p3257
I53
tp3258
a(S'37.209.194.7'
p3259
I53
tp3260
a(S'37.209.192.7'
p3261
I53
tp3262
a(S'37.209.198.7'
p3263
I53
tp3264
asS'xyz'
p3265
(lp3266
(S'212.18.248.42'
p3267
I53
tp3268
a(S'212.18.249.42'
p3269
I53
tp3270
a(S'185.24.64.42'
p3271
I53
tp3272
a(S'194.169.218.42'
p3273
I53
tp3274
asS'eus'
p3275
(lp3276
(S'195.253.64.12'
p3277
I53
tp3278
a(S'195.253.65.12'
p3279
I53
tp3280
a(S'195.253.64.11'
p3281
I53
tp3282
a(S'195.253.65.11'
p3283
I53
tp3284
asS'ly'
p3285
(lp3286
(S'196.216.168.24'
p3287
I53
tp3288
a(S'193.0.9.90'
p3289
I53
tp3290
a(S'62.68.42.9'
p3291
I53
tp3292
a(S'128.223.32.35'
p3293
I53
tp3294
a(S'62.240.36.9'
p3295
I53
tp3296
asS'goog'
p3297
(lp3298
(S'216.239.32.105'
p3299
I53
tp3300
a(S'216.239.38.105'
p3301
I53
tp3302
a(S'216.239.36.105'
p3303
I53
tp3304
a(S'216.239.60.105'
p3305
I53
tp3306
a(S'216.239.34.105'
p3307
I53
tp3308
asS'coffee'
p3309
(lp3310
(S'37.209.196.7'
p3311
I53
tp3312
a(S'37.209.194.7'
p3313
I53
tp3314
a(S'37.209.192.7'
p3315
I53
tp3316
a(S'37.209.198.7'
p3317
I53
tp3318
asS'finance'
p3319
(lp3320
(S'37.209.196.7'
p3321
I53
tp3322
a(S'37.209.194.7'
p3323
I53
tp3324
a(S'37.209.192.7'
p3325
I53
tp3326
a(S'37.209.198.7'
p3327
I53
tp3328
asS'xn--vhquv'
p3329
(lp3330
(S'37.209.196.7'
p3331
I53
tp3332
a(S'37.209.194.7'
p3333
I53
tp3334
a(S'37.209.192.7'
p3335
I53
tp3336
a(S'37.209.198.7'
p3337
I53
tp3338
asS'ceo'
p3339
(lp3340
(S'156.154.145.37'
p3341
I53
tp3342
a(S'156.154.158.37'
p3343
I53
tp3344
a(S'156.154.156.37'
p3345
I53
tp3346
a(S'156.154.144.37'
p3347
I53
tp3348
a(S'156.154.159.37'
p3349
I53
tp3350
a(S'156.154.157.37'
p3351
I53
tp3352
asS'docs'
p3353
(lp3354
(S'216.239.32.105'
p3355
I53
tp3356
a(S'216.239.38.105'
p3357
I53
tp3358
a(S'216.239.36.105'
p3359
I53
tp3360
a(S'216.239.60.105'
p3361
I53
tp3362
a(S'216.239.34.105'
p3363
I53
tp3364
asS'ye'
p3365
(lp3366
(S'65.162.184.33'
p3367
I53
tp3368
a(S'195.94.0.35'
p3369
I53
tp3370
a(S'195.94.0.34'
p3371
I53
tp3372
a(S'65.162.184.34'
p3373
I53
tp3374
asS'toshiba'
p3375
(lp3376
(S'65.22.166.1'
p3377
I53
tp3378
a(S'120.29.254.11'
p3379
I53
tp3380
a(S'65.22.167.1'
p3381
I53
tp3382
a(S'120.29.252.11'
p3383
I53
tp3384
a(S'65.22.165.1'
p3385
I53
tp3386
asS'xn--gecrj9c'
p3387
(lp3388
(S'199.254.60.1'
p3389
I53
tp3390
a(S'199.254.62.1'
p3391
I53
tp3392
a(S'125.19.40.90'
p3393
I53
tp3394
a(S'199.254.59.1'
p3395
I53
tp3396
a(S'199.249.125.1'
p3397
I53
tp3398
a(S'115.249.164.142'
p3399
I53
tp3400
a(S'199.254.61.1'
p3401
I53
tp3402
a(S'199.249.117.1'
p3403
I53
tp3404
asS'band'
p3405
(lp3406
(S'37.209.196.7'
p3407
I53
tp3408
a(S'37.209.194.7'
p3409
I53
tp3410
a(S'37.209.192.7'
p3411
I53
tp3412
a(S'37.209.198.7'
p3413
I53
tp3414
asS'xn--unup4y'
p3415
(lp3416
(S'37.209.196.7'
p3417
I53
tp3418
a(S'37.209.194.7'
p3419
I53
tp3420
a(S'37.209.192.7'
p3421
I53
tp3422
a(S'37.209.198.7'
p3423
I53
tp3424
asS'party'
p3425
(lp3426
(S'156.154.174.24'
p3427
I53
tp3428
a(S'156.154.172.24'
p3429
I53
tp3430
a(S'156.154.170.24'
p3431
I53
tp3432
a(S'156.154.173.24'
p3433
I53
tp3434
a(S'156.154.169.24'
p3435
I53
tp3436
a(S'156.154.171.24'
p3437
I53
tp3438
asS'ninja'
p3439
(lp3440
(S'37.209.196.7'
p3441
I53
tp3442
a(S'37.209.194.7'
p3443
I53
tp3444
a(S'37.209.192.7'
p3445
I53
tp3446
a(S'37.209.198.7'
p3447
I53
tp3448
asS'republican'
p3449
(lp3450
(S'37.209.196.7'
p3451
I53
tp3452
a(S'37.209.194.7'
p3453
I53
tp3454
a(S'37.209.192.7'
p3455
I53
tp3456
a(S'37.209.198.7'
p3457
I53
tp3458
asS'day'
p3459
(lp3460
(S'216.239.32.105'
p3461
I53
tp3462
a(S'216.239.38.105'
p3463
I53
tp3464
a(S'216.239.36.105'
p3465
I53
tp3466
a(S'216.239.60.105'
p3467
I53
tp3468
a(S'216.239.34.105'
p3469
I53
tp3470
asS'bank'
p3471
(lp3472
(S'192.26.92.34'
p3473
I53
tp3474
a(S'192.35.51.34'
p3475
I53
tp3476
a(S'192.31.80.34'
p3477
I53
tp3478
a(S'192.41.162.34'
p3479
I53
tp3480
a(S'192.42.93.34'
p3481
I53
tp3482
a(S'192.54.112.34'
p3483
I53
tp3484
a(S'192.5.6.34'
p3485
I53
tp3486
asS'name'
p3487
(lp3488
(S'192.52.178.35'
p3489
I53
tp3490
a(S'192.48.79.35'
p3491
I53
tp3492
a(S'192.26.92.35'
p3493
I53
tp3494
a(S'192.31.80.35'
p3495
I53
tp3496
a(S'192.35.51.35'
p3497
I53
tp3498
a(S'192.41.162.35'
p3499
I53
tp3500
a(S'192.42.93.35'
p3501
I53
tp3502
a(S'192.55.83.35'
p3503
I53
tp3504
a(S'192.54.112.35'
p3505
I53
tp3506
a(S'192.5.6.35'
p3507
I53
tp3508
asS'university'
p3509
(lp3510
(S'37.209.196.7'
p3511
I53
tp3512
a(S'37.209.194.7'
p3513
I53
tp3514
a(S'37.209.192.7'
p3515
I53
tp3516
a(S'37.209.198.7'
p3517
I53
tp3518
asS'xn--ogbpf8fl'
p3519
(lp3520
(S'82.137.192.145'
p3521
I53
tp3522
a(S'193.0.9.113'
p3523
I53
tp3524
a(S'204.61.216.71'
p3525
I53
tp3526
a(S'82.137.200.85'
p3527
I53
tp3528
asS'rocks'
p3529
(lp3530
(S'37.209.196.7'
p3531
I53
tp3532
a(S'37.209.194.7'
p3533
I53
tp3534
a(S'37.209.192.7'
p3535
I53
tp3536
a(S'37.209.198.7'
p3537
I53
tp3538
asS'courses'
p3539
(lp3540
(S'37.209.198.9'
p3541
I53
tp3542
a(S'37.209.192.9'
p3543
I53
tp3544
a(S'37.209.194.9'
p3545
I53
tp3546
a(S'37.209.196.9'
p3547
I53
tp3548
asS'fitness'
p3549
(lp3550
(S'37.209.196.7'
p3551
I53
tp3552
a(S'37.209.194.7'
p3553
I53
tp3554
a(S'37.209.192.7'
p3555
I53
tp3556
a(S'37.209.198.7'
p3557
I53
tp3558
asS'lacaixa'
p3559
(lp3560
(S'195.253.64.12'
p3561
I53
tp3562
a(S'195.253.64.11'
p3563
I53
tp3564
a(S'195.253.65.12'
p3565
I53
tp3566
a(S'195.253.65.11'
p3567
I53
tp3568
asS'ifm'
p3569
(lp3570
(S'195.253.64.12'
p3571
I53
tp3572
a(S'195.253.64.11'
p3573
I53
tp3574
a(S'195.253.65.12'
p3575
I53
tp3576
a(S'195.253.65.11'
p3577
I53
tp3578
asS'bond'
p3579
(lp3580
(S'37.209.198.9'
p3581
I53
tp3582
a(S'37.209.192.9'
p3583
I53
tp3584
a(S'37.209.194.9'
p3585
I53
tp3586
a(S'37.209.196.9'
p3587
I53
tp3588
asS'globo'
p3589
(lp3590
(S'200.219.159.10'
p3591
I53
tp3592
a(S'200.229.248.10'
p3593
I53
tp3594
a(S'200.192.233.10'
p3595
I53
tp3596
a(S'200.219.154.10'
p3597
I53
tp3598
a(S'200.160.0.10'
p3599
I53
tp3600
a(S'200.189.41.10'
p3601
I53
tp3602
asS'joburg'
p3603
(lp3604
(S'66.135.62.20'
p3605
I53
tp3606
a(S'206.223.136.200'
p3607
I53
tp3608
a(S'194.146.106.74'
p3609
I53
tp3610
asS'financial'
p3611
(lp3612
(S'37.209.196.7'
p3613
I53
tp3614
a(S'37.209.194.7'
p3615
I53
tp3616
a(S'37.209.192.7'
p3617
I53
tp3618
a(S'37.209.198.7'
p3619
I53
tp3620
asS'ee'
p3621
(lp3622
(S'213.184.51.122'
p3623
I53
tp3624
a(S'194.146.106.110'
p3625
I53
tp3626
a(S'193.40.132.5'
p3627
I53
tp3628
a(S'204.61.216.36'
p3629
I53
tp3630
a(S'195.43.87.10'
p3631
I53
tp3632
asS'house'
p3633
(lp3634
(S'37.209.196.7'
p3635
I53
tp3636
a(S'37.209.194.7'
p3637
I53
tp3638
a(S'37.209.192.7'
p3639
I53
tp3640
a(S'37.209.198.7'
p3641
I53
tp3642
asS'energy'
p3643
(lp3644
(S'37.209.196.7'
p3645
I53
tp3646
a(S'37.209.194.7'
p3647
I53
tp3648
a(S'37.209.192.7'
p3649
I53
tp3650
a(S'37.209.198.7'
p3651
I53
tp3652
asS'poker'
p3653
(lp3654
(S'65.22.20.33'
p3655
I53
tp3656
a(S'65.22.23.33'
p3657
I53
tp3658
a(S'65.22.22.33'
p3659
I53
tp3660
a(S'65.22.21.33'
p3661
I53
tp3662
asS'ec'
p3663
(lp3664
(S'204.61.216.39'
p3665
I53
tp3666
a(S'200.12.198.1'
p3667
I53
tp3668
a(S'200.12.199.1'
p3669
I53
tp3670
a(S'192.5.4.1'
p3671
I53
tp3672
asS'xn--flw351e'
p3673
(lp3674
(S'216.239.32.105'
p3675
I53
tp3676
a(S'216.239.38.105'
p3677
I53
tp3678
a(S'216.239.36.105'
p3679
I53
tp3680
a(S'216.239.60.105'
p3681
I53
tp3682
a(S'216.239.34.105'
p3683
I53
tp3684
asS'xn--kput3i'
p3685
(lp3686
(S'65.22.219.1'
p3687
I53
tp3688
a(S'65.22.216.1'
p3689
I53
tp3690
a(S'65.22.218.1'
p3691
I53
tp3692
a(S'65.22.217.1'
p3693
I53
tp3694
asS'vote'
p3695
(lp3696
(S'65.22.171.9'
p3697
I53
tp3698
a(S'65.22.169.9'
p3699
I53
tp3700
a(S'65.22.170.9'
p3701
I53
tp3702
a(S'65.22.168.9'
p3703
I53
tp3704
asS'trading'
p3705
(lp3706
(S'192.26.92.34'
p3707
I53
tp3708
a(S'192.31.80.34'
p3709
I53
tp3710
a(S'192.41.162.34'
p3711
I53
tp3712
a(S'192.35.51.34'
p3713
I53
tp3714
a(S'192.42.93.34'
p3715
I53
tp3716
a(S'192.5.6.34'
p3717
I53
tp3718
a(S'192.54.112.34'
p3719
I53
tp3720
asS'eu'
p3721
(lp3722
(S'91.200.16.100'
p3723
I53
tp3724
a(S'194.146.106.90'
p3725
I53
tp3726
a(S'193.2.221.60'
p3727
I53
tp3728
a(S'93.190.128.138'
p3729
I53
tp3730
a(S'194.0.1.19'
p3731
I53
tp3732
a(S'195.66.241.178'
p3733
I53
tp3734
asS'et'
p3735
(lp3736
(S'193.0.9.73'
p3737
I53
tp3738
a(S'213.55.64.36'
p3739
I53
tp3740
a(S'213.55.64.38'
p3741
I53
tp3742
a(S'128.223.32.35'
p3743
I53
tp3744
asS'es'
p3745
(lp3746
(S'84.88.0.3'
p3747
I53
tp3748
a(S'194.69.254.1'
p3749
I53
tp3750
a(S'130.206.1.2'
p3751
I53
tp3752
a(S'204.61.217.1'
p3753
I53
tp3754
a(S'192.5.4.1'
p3755
I53
tp3756
a(S'192.134.0.49'
p3757
I53
tp3758
a(S'200.1.123.14'
p3759
I53
tp3760
asS'er'
p3761
(lp3762
(S'193.0.9.72'
p3763
I53
tp3764
a(S'196.200.96.1'
p3765
I53
tp3766
a(S'196.200.96.2'
p3767
I53
tp3768
asS'ru'
p3769
(lp3770
(S'193.232.142.17'
p3771
I53
tp3772
a(S'194.85.252.62'
p3773
I53
tp3774
a(S'193.232.156.17'
p3775
I53
tp3776
a(S'194.190.124.17'
p3777
I53
tp3778
a(S'193.232.128.6'
p3779
I53
tp3780
asS'goo'
p3781
(lp3782
(S'65.22.166.1'
p3783
I53
tp3784
a(S'120.29.254.11'
p3785
I53
tp3786
a(S'65.22.167.1'
p3787
I53
tp3788
a(S'120.29.252.11'
p3789
I53
tp3790
a(S'65.22.165.1'
p3791
I53
tp3792
asS'rw'
p3793
(lp3794
(S'204.61.216.91'
p3795
I53
tp3796
a(S'196.216.168.28'
p3797
I53
tp3798
a(S'41.74.173.250'
p3799
I53
tp3800
a(S'192.5.4.1'
p3801
I53
tp3802
a(S'77.72.229.254'
p3803
I53
tp3804
a(S'41.186.53.10'
p3805
I53
tp3806
asS'network'
p3807
(lp3808
(S'37.209.196.7'
p3809
I53
tp3810
a(S'37.209.194.7'
p3811
I53
tp3812
a(S'37.209.192.7'
p3813
I53
tp3814
a(S'37.209.198.7'
p3815
I53
tp3816
asS'rs'
p3817
(lp3818
(S'204.61.216.32'
p3819
I53
tp3820
a(S'147.91.8.6'
p3821
I53
tp3822
a(S'91.199.17.59'
p3823
I53
tp3824
a(S'195.178.32.2'
p3825
I53
tp3826
a(S'193.0.9.107'
p3827
I53
tp3828
a(S'194.146.106.114'
p3829
I53
tp3830
a(S'192.5.4.1'
p3831
I53
tp3832
a(S'91.199.17.60'
p3833
I53
tp3834
asS'boutique'
p3835
(lp3836
(S'37.209.196.7'
p3837
I53
tp3838
a(S'37.209.194.7'
p3839
I53
tp3840
a(S'37.209.192.7'
p3841
I53
tp3842
a(S'37.209.198.7'
p3843
I53
tp3844
asS'bauhaus'
p3845
(lp3846
(S'195.253.64.12'
p3847
I53
tp3848
a(S'195.253.65.12'
p3849
I53
tp3850
a(S'195.253.64.11'
p3851
I53
tp3852
a(S'195.253.65.11'
p3853
I53
tp3854
asS're'
p3855
(lp3856
(S'194.0.36.1'
p3857
I53
tp3858
a(S'194.146.106.46'
p3859
I53
tp3860
a(S'193.176.144.22'
p3861
I53
tp3862
a(S'192.5.4.2'
p3863
I53
tp3864
a(S'194.0.9.1'
p3865
I53
tp3866
asS'ren'
p3867
(lp3868
(S'111.12.148.111'
p3869
I53
tp3870
a(S'1.8.242.1'
p3871
I53
tp3872
a(S'1.8.241.1'
p3873
I53
tp3874
a(S'119.167.248.154'
p3875
I53
tp3876
asS'gov'
p3877
(lp3878
(S'209.112.123.30'
p3879
I53
tp3880
a(S'69.36.157.30'
p3881
I53
tp3882
asS'gop'
p3883
(lp3884
(S'70.40.0.19'
p3885
I53
tp3886
a(S'70.40.8.19'
p3887
I53
tp3888
a(S'72.0.50.19'
p3889
I53
tp3890
a(S'72.42.114.19'
p3891
I53
tp3892
asS'red'
p3893
(lp3894
(S'65.22.38.25'
p3895
I53
tp3896
a(S'65.22.36.25'
p3897
I53
tp3898
a(S'65.22.39.25'
p3899
I53
tp3900
a(S'65.22.37.25'
p3901
I53
tp3902
asS'foundation'
p3903
(lp3904
(S'37.209.196.7'
p3905
I53
tp3906
a(S'37.209.194.7'
p3907
I53
tp3908
a(S'37.209.192.7'
p3909
I53
tp3910
a(S'37.209.198.7'
p3911
I53
tp3912
asS'abbott'
p3913
(lp3914
(S'65.22.156.41'
p3915
I53
tp3916
a(S'65.22.159.41'
p3917
I53
tp3918
a(S'65.22.157.41'
p3919
I53
tp3920
a(S'65.22.158.41'
p3921
I53
tp3922
asS'durban'
p3923
(lp3924
(S'66.135.62.20'
p3925
I53
tp3926
a(S'206.223.136.200'
p3927
I53
tp3928
a(S'194.146.106.74'
p3929
I53
tp3930
asS'cuisinella'
p3931
(lp3932
(S'37.209.198.9'
p3933
I53
tp3934
a(S'37.209.192.9'
p3935
I53
tp3936
a(S'37.209.194.9'
p3937
I53
tp3938
a(S'37.209.196.9'
p3939
I53
tp3940
asS'team'
p3941
(lp3942
(S'37.209.196.7'
p3943
I53
tp3944
a(S'37.209.194.7'
p3945
I53
tp3946
a(S'37.209.192.7'
p3947
I53
tp3948
a(S'37.209.198.7'
p3949
I53
tp3950
asS'ntt'
p3951
(lp3952
(S'65.22.40.17'
p3953
I53
tp3954
a(S'103.47.2.2'
p3955
I53
tp3956
a(S'117.104.133.17'
p3957
I53
tp3958
asS'pub'
p3959
(lp3960
(S'37.209.196.7'
p3961
I53
tp3962
a(S'37.209.194.7'
p3963
I53
tp3964
a(S'37.209.192.7'
p3965
I53
tp3966
a(S'37.209.198.7'
p3967
I53
tp3968
asS'sh'
p3969
(lp3970
(S'194.0.1.1'
p3971
I53
tp3972
a(S'49.212.51.85'
p3973
I53
tp3974
a(S'194.0.2.1'
p3975
I53
tp3976
a(S'78.104.145.37'
p3977
I53
tp3978
a(S'91.208.95.130'
p3979
I53
tp3980
a(S'64.251.31.178'
p3981
I53
tp3982
a(S'49.212.31.192'
p3983
I53
tp3984
asS'vacations'
p3985
(lp3986
(S'37.209.196.7'
p3987
I53
tp3988
a(S'37.209.194.7'
p3989
I53
tp3990
a(S'37.209.192.7'
p3991
I53
tp3992
a(S'37.209.198.7'
p3993
I53
tp3994
asS'org'
p3995
(lp3996
(S'199.249.120.1'
p3997
I53
tp3998
a(S'199.19.56.1'
p3999
I53
tp4000
a(S'199.19.53.1'
p4001
I53
tp4002
a(S'199.19.57.1'
p4003
I53
tp4004
a(S'199.249.112.1'
p4005
I53
tp4006
a(S'199.19.54.1'
p4007
I53
tp4008
asS'xn--4gbrim'
p4009
(lp4010
(S'65.22.247.33'
p4011
I53
tp4012
a(S'65.22.244.33'
p4013
I53
tp4014
a(S'65.22.245.33'
p4015
I53
tp4016
a(S'65.22.246.33'
p4017
I53
tp4018
asS'hermes'
p4019
(lp4020
(S'65.22.235.25'
p4021
I53
tp4022
a(S'65.22.232.25'
p4023
I53
tp4024
a(S'65.22.234.25'
p4025
I53
tp4026
a(S'65.22.233.25'
p4027
I53
tp4028
asS'care'
p4029
(lp4030
(S'37.209.196.7'
p4031
I53
tp4032
a(S'37.209.194.7'
p4033
I53
tp4034
a(S'37.209.192.7'
p4035
I53
tp4036
a(S'37.209.198.7'
p4037
I53
tp4038
asS'training'
p4039
(lp4040
(S'37.209.196.7'
p4041
I53
tp4042
a(S'37.209.194.7'
p4043
I53
tp4044
a(S'37.209.192.7'
p4045
I53
tp4046
a(S'37.209.198.7'
p4047
I53
tp4048
asS'organic'
p4049
(lp4050
(S'65.22.23.40'
p4051
I53
tp4052
a(S'65.22.22.40'
p4053
I53
tp4054
a(S'65.22.21.40'
p4055
I53
tp4056
a(S'65.22.20.40'
p4057
I53
tp4058
asS'xn--s9brj9c'
p4059
(lp4060
(S'199.254.59.1'
p4061
I53
tp4062
a(S'199.254.62.1'
p4063
I53
tp4064
a(S'125.19.40.90'
p4065
I53
tp4066
a(S'199.254.60.1'
p4067
I53
tp4068
a(S'199.249.125.1'
p4069
I53
tp4070
a(S'115.249.164.142'
p4071
I53
tp4072
a(S'199.254.61.1'
p4073
I53
tp4074
a(S'199.249.117.1'
p4075
I53
tp4076
asS'recipes'
p4077
(lp4078
(S'37.209.196.7'
p4079
I53
tp4080
a(S'37.209.194.7'
p4081
I53
tp4082
a(S'37.209.192.7'
p4083
I53
tp4084
a(S'37.209.198.7'
p4085
I53
tp4086
asS'so'
p4087
(lp4088
(S'63.243.194.4'
p4089
I53
tp4090
a(S'38.103.2.4'
p4091
I53
tp4092
a(S'72.52.71.4'
p4093
I53
tp4094
asS'place'
p4095
(lp4096
(S'37.209.196.7'
p4097
I53
tp4098
a(S'37.209.194.7'
p4099
I53
tp4100
a(S'37.209.192.7'
p4101
I53
tp4102
a(S'37.209.198.7'
p4103
I53
tp4104
asS'forsale'
p4105
(lp4106
(S'37.209.196.7'
p4107
I53
tp4108
a(S'37.209.194.7'
p4109
I53
tp4110
a(S'37.209.192.7'
p4111
I53
tp4112
a(S'37.209.198.7'
p4113
I53
tp4114
asS'support'
p4115
(lp4116
(S'37.209.196.7'
p4117
I53
tp4118
a(S'37.209.194.7'
p4119
I53
tp4120
a(S'37.209.192.7'
p4121
I53
tp4122
a(S'37.209.198.7'
p4123
I53
tp4124
asS'xn--i1b6b1a6a2e'
p4125
(lp4126
(S'65.22.184.1'
p4127
I53
tp4128
a(S'65.22.186.1'
p4129
I53
tp4130
a(S'65.22.185.1'
p4131
I53
tp4132
a(S'65.22.187.1'
p4133
I53
tp4134
asS'wiki'
p4135
(lp4136
(S'194.0.2.2'
p4137
I53
tp4138
a(S'194.169.218.30'
p4139
I53
tp4140
a(S'194.0.1.45'
p4141
I53
tp4142
a(S'185.24.64.30'
p4143
I53
tp4144
asS'tennis'
p4145
(lp4146
(S'37.209.196.7'
p4147
I53
tp4148
a(S'37.209.194.7'
p4149
I53
tp4150
a(S'37.209.192.7'
p4151
I53
tp4152
a(S'37.209.198.7'
p4153
I53
tp4154
asS'kim'
p4155
(lp4156
(S'65.22.28.1'
p4157
I53
tp4158
a(S'65.22.30.1'
p4159
I53
tp4160
a(S'65.22.29.1'
p4161
I53
tp4162
a(S'65.22.31.1'
p4163
I53
tp4164
asS'onl'
p4165
(lp4166
(S'65.22.138.1'
p4167
I53
tp4168
a(S'65.22.137.1'
p4169
I53
tp4170
a(S'65.22.139.1'
p4171
I53
tp4172
a(S'65.22.136.1'
p4173
I53
tp4174
asS'ong'
p4175
(lp4176
(S'199.249.120.1'
p4177
I53
tp4178
a(S'199.19.56.1'
p4179
I53
tp4180
a(S'199.19.53.1'
p4181
I53
tp4182
a(S'199.19.57.1'
p4183
I53
tp4184
a(S'199.249.112.1'
p4185
I53
tp4186
a(S'199.19.54.1'
p4187
I53
tp4188
asS'nhk'
p4189
(lp4190
(S'65.22.166.1'
p4191
I53
tp4192
a(S'120.29.254.11'
p4193
I53
tp4194
a(S'65.22.167.1'
p4195
I53
tp4196
a(S'120.29.252.11'
p4197
I53
tp4198
a(S'65.22.165.1'
p4199
I53
tp4200
asS'one'
p4201
(lp4202
(S'37.209.198.9'
p4203
I53
tp4204
a(S'37.209.192.9'
p4205
I53
tp4206
a(S'37.209.194.9'
p4207
I53
tp4208
a(S'37.209.196.9'
p4209
I53
tp4210
asS'lat'
p4211
(lp4212
(S'200.94.176.1'
p4213
I53
tp4214
a(S'200.23.1.1'
p4215
I53
tp4216
a(S'192.100.224.1'
p4217
I53
tp4218
asS'voto'
p4219
(lp4220
(S'65.22.171.1'
p4221
I53
tp4222
a(S'65.22.169.1'
p4223
I53
tp4224
a(S'65.22.170.1'
p4225
I53
tp4226
a(S'65.22.168.1'
p4227
I53
tp4228
asS'florist'
p4229
(lp4230
(S'37.209.196.7'
p4231
I53
tp4232
a(S'37.209.194.7'
p4233
I53
tp4234
a(S'37.209.192.7'
p4235
I53
tp4236
a(S'37.209.198.7'
p4237
I53
tp4238
asS'ovh'
p4239
(lp4240
(S'194.0.36.1'
p4241
I53
tp4242
a(S'194.146.106.46'
p4243
I53
tp4244
a(S'194.0.9.1'
p4245
I53
tp4246
asS'engineer'
p4247
(lp4248
(S'37.209.196.7'
p4249
I53
tp4250
a(S'37.209.194.7'
p4251
I53
tp4252
a(S'37.209.192.7'
p4253
I53
tp4254
a(S'37.209.198.7'
p4255
I53
tp4256
asS'city'
p4257
(lp4258
(S'37.209.196.7'
p4259
I53
tp4260
a(S'37.209.194.7'
p4261
I53
tp4262
a(S'37.209.192.7'
p4263
I53
tp4264
a(S'37.209.198.7'
p4265
I53
tp4266
asS'horse'
p4267
(lp4268
(S'70.40.8.8'
p4269
I53
tp4270
a(S'72.42.114.8'
p4271
I53
tp4272
a(S'70.40.0.8'
p4273
I53
tp4274
a(S'72.0.50.8'
p4275
I53
tp4276
asS'management'
p4277
(lp4278
(S'37.209.196.7'
p4279
I53
tp4280
a(S'37.209.194.7'
p4281
I53
tp4282
a(S'37.209.192.7'
p4283
I53
tp4284
a(S'37.209.198.7'
p4285
I53
tp4286
asS'xn--55qw42g'
p4287
(lp4288
(S'111.235.165.1'
p4289
I53
tp4290
a(S'111.235.162.1'
p4291
I53
tp4292
a(S'111.235.164.1'
p4293
I53
tp4294
a(S'111.235.161.1'
p4295
I53
tp4296
a(S'111.235.163.1'
p4297
I53
tp4298
asS'top'
p4299
(lp4300
(S'119.167.248.154'
p4301
I53
tp4302
a(S'1.8.242.1'
p4303
I53
tp4304
a(S'1.8.241.1'
p4305
I53
tp4306
a(S'1.8.243.1'
p4307
I53
tp4308
asS'xin'
p4309
(lp4310
(S'65.22.128.17'
p4311
I53
tp4312
a(S'65.22.130.17'
p4313
I53
tp4314
a(S'65.22.131.17'
p4315
I53
tp4316
a(S'65.22.129.17'
p4317
I53
tp4318
asS'show'
p4319
(lp4320
(S'37.209.196.7'
p4321
I53
tp4322
a(S'37.209.194.7'
p4323
I53
tp4324
a(S'37.209.192.7'
p4325
I53
tp4326
a(S'37.209.198.7'
p4327
I53
tp4328
asS'gives'
p4329
(lp4330
(S'37.209.196.7'
p4331
I53
tp4332
a(S'37.209.194.7'
p4333
I53
tp4334
a(S'37.209.192.7'
p4335
I53
tp4336
a(S'37.209.198.7'
p4337
I53
tp4338
asS'kiwi'
p4339
(lp4340
(S'70.40.8.4'
p4341
I53
tp4342
a(S'70.40.0.4'
p4343
I53
tp4344
a(S'72.42.114.4'
p4345
I53
tp4346
a(S'72.0.50.4'
p4347
I53
tp4348
asS'hangout'
p4349
(lp4350
(S'216.239.32.105'
p4351
I53
tp4352
a(S'216.239.38.105'
p4353
I53
tp4354
a(S'216.239.36.105'
p4355
I53
tp4356
a(S'216.239.60.105'
p4357
I53
tp4358
a(S'216.239.34.105'
p4359
I53
tp4360
asS'academy'
p4361
(lp4362
(S'37.209.196.7'
p4363
I53
tp4364
a(S'37.209.194.7'
p4365
I53
tp4366
a(S'37.209.192.7'
p4367
I53
tp4368
a(S'37.209.198.7'
p4369
I53
tp4370
asS'moscow'
p4371
(lp4372
(S'193.232.142.17'
p4373
I53
tp4374
a(S'194.85.252.62'
p4375
I53
tp4376
a(S'193.232.156.17'
p4377
I53
tp4378
a(S'194.190.124.17'
p4379
I53
tp4380
a(S'193.232.128.6'
p4381
I53
tp4382
asS'sy'
p4383
(lp4384
(S'82.137.192.145'
p4385
I53
tp4386
a(S'193.0.9.113'
p4387
I53
tp4388
a(S'204.61.216.71'
p4389
I53
tp4390
a(S'82.137.200.85'
p4391
I53
tp4392
asS'za'
p4393
(lp4394
(S'204.61.216.55'
p4395
I53
tp4396
a(S'196.21.79.50'
p4397
I53
tp4398
a(S'194.146.106.78'
p4399
I53
tp4400
a(S'196.4.160.27'
p4401
I53
tp4402
a(S'192.5.4.1'
p4403
I53
tp4404
asS'pictet'
p4405
(lp4406
(S'192.26.92.34'
p4407
I53
tp4408
a(S'192.31.80.34'
p4409
I53
tp4410
a(S'192.41.162.34'
p4411
I53
tp4412
a(S'192.35.51.34'
p4413
I53
tp4414
a(S'192.42.93.34'
p4415
I53
tp4416
a(S'192.5.6.34'
p4417
I53
tp4418
a(S'192.54.112.34'
p4419
I53
tp4420
asS'dentist'
p4421
(lp4422
(S'37.209.196.7'
p4423
I53
tp4424
a(S'37.209.194.7'
p4425
I53
tp4426
a(S'37.209.192.7'
p4427
I53
tp4428
a(S'37.209.198.7'
p4429
I53
tp4430
asS'spreadbetting'
p4431
(lp4432
(S'192.26.92.34'
p4433
I53
tp4434
a(S'192.42.93.34'
p4435
I53
tp4436
a(S'192.31.80.34'
p4437
I53
tp4438
a(S'192.41.162.34'
p4439
I53
tp4440
a(S'192.35.51.34'
p4441
I53
tp4442
a(S'192.54.112.34'
p4443
I53
tp4444
a(S'192.5.6.34'
p4445
I53
tp4446
asS'spiegel'
p4447
(lp4448
(S'203.119.88.75'
p4449
I53
tp4450
a(S'203.119.88.76'
p4451
I53
tp4452
a(S'72.0.48.76'
p4453
I53
tp4454
a(S'72.0.48.75'
p4455
I53
tp4456
asS'flowers'
p4457
(lp4458
(S'199.19.1.6'
p4459
I53
tp4460
a(S'185.38.98.6'
p4461
I53
tp4462
a(S'64.96.25.53'
p4463
I53
tp4464
a(S'199.19.7.6'
p4465
I53
tp4466
a(S'72.52.71.3'
p4467
I53
tp4468
a(S'38.103.2.3'
p4469
I53
tp4470
a(S'63.243.194.3'
p4471
I53
tp4472
asS'suzuki'
p4473
(lp4474
(S'65.22.166.1'
p4475
I53
tp4476
a(S'120.29.254.11'
p4477
I53
tp4478
a(S'65.22.167.1'
p4479
I53
tp4480
a(S'120.29.252.11'
p4481
I53
tp4482
a(S'65.22.165.1'
p4483
I53
tp4484
asS'rehab'
p4485
(lp4486
(S'37.209.196.7'
p4487
I53
tp4488
a(S'37.209.194.7'
p4489
I53
tp4490
a(S'37.209.192.7'
p4491
I53
tp4492
a(S'37.209.198.7'
p4493
I53
tp4494
asS'cards'
p4495
(lp4496
(S'37.209.196.7'
p4497
I53
tp4498
a(S'37.209.194.7'
p4499
I53
tp4500
a(S'37.209.192.7'
p4501
I53
tp4502
a(S'37.209.198.7'
p4503
I53
tp4504
asS'design'
p4505
(lp4506
(S'185.24.64.59'
p4507
I53
tp4508
a(S'194.169.218.59'
p4509
I53
tp4510
a(S'194.0.1.45'
p4511
I53
tp4512
a(S'194.0.2.2'
p4513
I53
tp4514
asS'lease'
p4515
(lp4516
(S'37.209.196.7'
p4517
I53
tp4518
a(S'37.209.194.7'
p4519
I53
tp4520
a(S'37.209.192.7'
p4521
I53
tp4522
a(S'37.209.198.7'
p4523
I53
tp4524
asS'quebec'
p4525
(lp4526
(S'195.253.65.11'
p4527
I53
tp4528
a(S'195.253.65.12'
p4529
I53
tp4530
a(S'195.253.64.11'
p4531
I53
tp4532
a(S'195.253.64.12'
p4533
I53
tp4534
asS'meme'
p4535
(lp4536
(S'216.239.32.105'
p4537
I53
tp4538
a(S'216.239.38.105'
p4539
I53
tp4540
a(S'216.239.36.105'
p4541
I53
tp4542
a(S'216.239.60.105'
p4543
I53
tp4544
a(S'216.239.34.105'
p4545
I53
tp4546
asS'fashion'
p4547
(lp4548
(S'72.0.50.28'
p4549
I53
tp4550
a(S'70.40.0.28'
p4551
I53
tp4552
a(S'72.42.114.28'
p4553
I53
tp4554
a(S'70.40.8.28'
p4555
I53
tp4556
asS'chloe'
p4557
(lp4558
(S'156.154.144.41'
p4559
I53
tp4560
a(S'156.154.157.41'
p4561
I53
tp4562
a(S'156.154.145.41'
p4563
I53
tp4564
a(S'156.154.158.41'
p4565
I53
tp4566
a(S'156.154.159.41'
p4567
I53
tp4568
a(S'156.154.156.41'
p4569
I53
tp4570
asS'reise'
p4571
(lp4572
(S'194.0.26.7'
p4573
I53
tp4574
a(S'194.0.24.7'
p4575
I53
tp4576
a(S'194.0.25.18'
p4577
I53
tp4578
asS'pro'
p4579
(lp4580
(S'199.182.0.1'
p4581
I53
tp4582
a(S'199.182.40.1'
p4583
I53
tp4584
a(S'199.182.1.1'
p4585
I53
tp4586
a(S'199.182.32.1'
p4587
I53
tp4588
a(S'199.182.17.1'
p4589
I53
tp4590
a(S'199.182.16.1'
p4591
I53
tp4592
asS'yachts'
p4593
(lp4594
(S'65.22.101.1'
p4595
I53
tp4596
a(S'65.22.103.1'
p4597
I53
tp4598
a(S'65.22.100.1'
p4599
I53
tp4600
a(S'65.22.102.1'
p4601
I53
tp4602
asS'kred'
p4603
(lp4604
(S'156.154.156.99'
p4605
I53
tp4606
a(S'156.154.159.99'
p4607
I53
tp4608
a(S'156.154.158.99'
p4609
I53
tp4610
a(S'156.154.144.99'
p4611
I53
tp4612
a(S'156.154.145.99'
p4613
I53
tp4614
a(S'156.154.157.99'
p4615
I53
tp4616
asS'su'
p4617
(lp4618
(S'193.232.142.17'
p4619
I53
tp4620
a(S'194.85.252.62'
p4621
I53
tp4622
a(S'193.232.156.17'
p4623
I53
tp4624
a(S'194.190.124.17'
p4625
I53
tp4626
a(S'193.232.128.6'
p4627
I53
tp4628
asS'host'
p4629
(lp4630
(S'185.24.64.53'
p4631
I53
tp4632
a(S'194.169.218.53'
p4633
I53
tp4634
a(S'212.18.251.53'
p4635
I53
tp4636
a(S'185.24.67.53'
p4637
I53
tp4638
asS'everbank'
p4639
(lp4640
(S'156.154.159.53'
p4641
I53
tp4642
a(S'156.154.157.53'
p4643
I53
tp4644
a(S'156.154.144.53'
p4645
I53
tp4646
a(S'156.154.156.53'
p4647
I53
tp4648
a(S'156.154.158.53'
p4649
I53
tp4650
a(S'156.154.145.53'
p4651
I53
tp4652
asS'sap'
p4653
(lp4654
(S'195.253.65.11'
p4655
I53
tp4656
a(S'195.253.65.12'
p4657
I53
tp4658
a(S'195.253.64.11'
p4659
I53
tp4660
a(S'195.253.64.12'
p4661
I53
tp4662
asS'xn--ngbc5azd'
p4663
(lp4664
(S'37.209.192.3'
p4665
I53
tp4666
a(S'37.209.198.3'
p4667
I53
tp4668
a(S'37.209.196.3'
p4669
I53
tp4670
a(S'37.209.194.3'
p4671
I53
tp4672
asS'surgery'
p4673
(lp4674
(S'37.209.196.7'
p4675
I53
tp4676
a(S'37.209.194.7'
p4677
I53
tp4678
a(S'37.209.192.7'
p4679
I53
tp4680
a(S'37.209.198.7'
p4681
I53
tp4682
asS'xn--fiqs8s'
p4683
(lp4684
(S'125.208.36.1'
p4685
I53
tp4686
a(S'125.208.33.1'
p4687
I53
tp4688
a(S'125.208.34.1'
p4689
I53
tp4690
a(S'125.208.32.1'
p4691
I53
tp4692
a(S'125.208.35.1'
p4693
I53
tp4694
asS'sa'
p4695
(lp4696
(S'147.28.0.39'
p4697
I53
tp4698
a(S'212.26.18.3'
p4699
I53
tp4700
a(S'204.61.216.41'
p4701
I53
tp4702
a(S'86.111.196.9'
p4703
I53
tp4704
a(S'193.0.9.108'
p4705
I53
tp4706
a(S'86.111.192.9'
p4707
I53
tp4708
asS'mil'
p4709
(lp4710
(S'199.252.155.234'
p4711
I53
tp4712
a(S'199.252.180.234'
p4713
I53
tp4714
a(S'199.252.154.234'
p4715
I53
tp4716
a(S'199.252.162.234'
p4717
I53
tp4718
a(S'199.252.157.234'
p4719
I53
tp4720
a(S'199.252.143.234'
p4721
I53
tp4722
asS'yodobashi'
p4723
(lp4724
(S'65.22.166.1'
p4725
I53
tp4726
a(S'120.29.254.11'
p4727
I53
tp4728
a(S'65.22.167.1'
p4729
I53
tp4730
a(S'120.29.252.11'
p4731
I53
tp4732
a(S'65.22.165.1'
p4733
I53
tp4734
asS'datsun'
p4735
(lp4736
(S'65.22.166.1'
p4737
I53
tp4738
a(S'120.29.254.11'
p4739
I53
tp4740
a(S'65.22.167.1'
p4741
I53
tp4742
a(S'120.29.252.11'
p4743
I53
tp4744
a(S'65.22.165.1'
p4745
I53
tp4746
asS'agency'
p4747
(lp4748
(S'37.209.196.7'
p4749
I53
tp4750
a(S'37.209.194.7'
p4751
I53
tp4752
a(S'37.209.192.7'
p4753
I53
tp4754
a(S'37.209.198.7'
p4755
I53
tp4756
asS'gripe'
p4757
(lp4758
(S'37.209.196.7'
p4759
I53
tp4760
a(S'37.209.194.7'
p4761
I53
tp4762
a(S'37.209.192.7'
p4763
I53
tp4764
a(S'37.209.198.7'
p4765
I53
tp4766
asS'equipment'
p4767
(lp4768
(S'37.209.196.7'
p4769
I53
tp4770
a(S'37.209.194.7'
p4771
I53
tp4772
a(S'37.209.192.7'
p4773
I53
tp4774
a(S'37.209.198.7'
p4775
I53
tp4776
asS'xn--6frz82g'
p4777
(lp4778
(S'65.22.25.9'
p4779
I53
tp4780
a(S'65.22.27.9'
p4781
I53
tp4782
a(S'65.22.24.9'
p4783
I53
tp4784
a(S'65.22.26.9'
p4785
I53
tp4786
asS'maison'
p4787
(lp4788
(S'37.209.196.7'
p4789
I53
tp4790
a(S'37.209.194.7'
p4791
I53
tp4792
a(S'37.209.192.7'
p4793
I53
tp4794
a(S'37.209.198.7'
p4795
I53
tp4796
asS'build'
p4797
(lp4798
(S'37.209.198.10'
p4799
I53
tp4800
a(S'37.209.196.10'
p4801
I53
tp4802
a(S'37.209.194.10'
p4803
I53
tp4804
a(S'37.209.192.10'
p4805
I53
tp4806
asS'vn'
p4807
(lp4808
(S'203.119.60.105'
p4809
I53
tp4810
a(S'193.0.9.126'
p4811
I53
tp4812
a(S'203.119.68.105'
p4813
I53
tp4814
a(S'203.119.10.105'
p4815
I53
tp4816
a(S'203.119.44.105'
p4817
I53
tp4818
a(S'194.0.1.18'
p4819
I53
tp4820
a(S'203.119.38.105'
p4821
I53
tp4822
asS'online'
p4823
(lp4824
(S'194.0.1.45'
p4825
I53
tp4826
a(S'194.169.218.54'
p4827
I53
tp4828
a(S'185.24.64.54'
p4829
I53
tp4830
a(S'194.0.2.2'
p4831
I53
tp4832
asS'new'
p4833
(lp4834
(S'216.239.32.105'
p4835
I53
tp4836
a(S'216.239.38.105'
p4837
I53
tp4838
a(S'216.239.36.105'
p4839
I53
tp4840
a(S'216.239.60.105'
p4841
I53
tp4842
a(S'216.239.34.105'
p4843
I53
tp4844
asS'channel'
p4845
(lp4846
(S'216.239.32.105'
p4847
I53
tp4848
a(S'216.239.38.105'
p4849
I53
tp4850
a(S'216.239.36.105'
p4851
I53
tp4852
a(S'216.239.60.105'
p4853
I53
tp4854
a(S'216.239.34.105'
p4855
I53
tp4856
asS'sn'
p4857
(lp4858
(S'91.203.32.147'
p4859
I53
tp4860
a(S'213.154.64.11'
p4861
I53
tp4862
a(S'192.134.0.49'
p4863
I53
tp4864
a(S'196.1.95.1'
p4865
I53
tp4866
a(S'193.0.9.111'
p4867
I53
tp4868
asS'surf'
p4869
(lp4870
(S'72.42.114.22'
p4871
I53
tp4872
a(S'72.0.50.22'
p4873
I53
tp4874
a(S'70.40.8.22'
p4875
I53
tp4876
a(S'70.40.0.22'
p4877
I53
tp4878
asS'xn--mgbayh7gpa'
p4879
(lp4880
(S'193.188.66.2'
p4881
I53
tp4882
a(S'193.188.69.19'
p4883
I53
tp4884
a(S'193.188.66.103'
p4885
I53
tp4886
a(S'193.0.9.83'
p4887
I53
tp4888
a(S'147.28.0.39'
p4889
I53
tp4890
asS'iwc'
p4891
(lp4892
(S'156.154.157.85'
p4893
I53
tp4894
a(S'156.154.144.85'
p4895
I53
tp4896
a(S'156.154.159.85'
p4897
I53
tp4898
a(S'156.154.158.85'
p4899
I53
tp4900
a(S'156.154.145.85'
p4901
I53
tp4902
a(S'156.154.156.85'
p4903
I53
tp4904
asS'koeln'
p4905
(lp4906
(S'195.253.65.11'
p4907
I53
tp4908
a(S'195.253.65.12'
p4909
I53
tp4910
a(S'195.253.64.11'
p4911
I53
tp4912
a(S'195.253.64.12'
p4913
I53
tp4914
asS'sl'
p4915
(lp4916
(S'208.109.17.150'
p4917
I53
tp4918
a(S'62.90.247.118'
p4919
I53
tp4920
asS'systems'
p4921
(lp4922
(S'37.209.196.7'
p4923
I53
tp4924
a(S'37.209.194.7'
p4925
I53
tp4926
a(S'37.209.192.7'
p4927
I53
tp4928
a(S'37.209.198.7'
p4929
I53
tp4930
asS'accountants'
p4931
(lp4932
(S'37.209.196.7'
p4933
I53
tp4934
a(S'37.209.194.7'
p4935
I53
tp4936
a(S'37.209.192.7'
p4937
I53
tp4938
a(S'37.209.198.7'
p4939
I53
tp4940
asS'sc'
p4941
(lp4942
(S'199.249.124.1'
p4943
I53
tp4944
a(S'41.191.121.129'
p4945
I53
tp4946
a(S'199.254.59.1'
p4947
I53
tp4948
a(S'199.254.62.1'
p4949
I53
tp4950
a(S'199.249.116.1'
p4951
I53
tp4952
a(S'199.254.60.1'
p4953
I53
tp4954
a(S'199.254.61.1'
p4955
I53
tp4956
asS'hiphop'
p4957
(lp4958
(S'64.96.25.53'
p4959
I53
tp4960
a(S'38.103.2.3'
p4961
I53
tp4962
a(S'199.19.7.10'
p4963
I53
tp4964
a(S'72.52.71.3'
p4965
I53
tp4966
a(S'63.243.194.3'
p4967
I53
tp4968
a(S'199.19.1.10'
p4969
I53
tp4970
a(S'185.38.98.10'
p4971
I53
tp4972
asS'services'
p4973
(lp4974
(S'37.209.196.7'
p4975
I53
tp4976
a(S'37.209.194.7'
p4977
I53
tp4978
a(S'37.209.192.7'
p4979
I53
tp4980
a(S'37.209.198.7'
p4981
I53
tp4982
asS'gallery'
p4983
(lp4984
(S'37.209.196.7'
p4985
I53
tp4986
a(S'37.209.194.7'
p4987
I53
tp4988
a(S'37.209.192.7'
p4989
I53
tp4990
a(S'37.209.198.7'
p4991
I53
tp4992
asS'realtor'
p4993
(lp4994
(S'192.26.92.34'
p4995
I53
tp4996
a(S'192.42.93.34'
p4997
I53
tp4998
a(S'192.31.80.34'
p4999
I53
tp5000
a(S'192.41.162.34'
p5001
I53
tp5002
a(S'192.35.51.34'
p5003
I53
tp5004
a(S'192.54.112.34'
p5005
I53
tp5006
a(S'192.5.6.34'
p5007
I53
tp5008
asS'webcam'
p5009
(lp5010
(S'156.154.173.60'
p5011
I53
tp5012
a(S'156.154.169.60'
p5013
I53
tp5014
a(S'156.154.171.60'
p5015
I53
tp5016
a(S'156.154.172.60'
p5017
I53
tp5018
a(S'156.154.174.60'
p5019
I53
tp5020
a(S'156.154.170.60'
p5021
I53
tp5022
asS'archi'
p5023
(lp5024
(S'203.119.88.75'
p5025
I53
tp5026
a(S'203.119.88.76'
p5027
I53
tp5028
a(S'72.0.48.76'
p5029
I53
tp5030
a(S'72.0.48.75'
p5031
I53
tp5032
asS'mortgage'
p5033
(lp5034
(S'37.209.196.7'
p5035
I53
tp5036
a(S'37.209.194.7'
p5037
I53
tp5038
a(S'37.209.192.7'
p5039
I53
tp5040
a(S'37.209.198.7'
p5041
I53
tp5042
asS'ke'
p5043
(lp5044
(S'196.1.4.130'
p5045
I53
tp5046
a(S'198.32.67.9'
p5047
I53
tp5048
a(S'196.216.168.22'
p5049
I53
tp5050
a(S'66.135.62.20'
p5051
I53
tp5052
a(S'204.61.216.7'
p5053
I53
tp5054
asS'schule'
p5055
(lp5056
(S'37.209.196.7'
p5057
I53
tp5058
a(S'37.209.194.7'
p5059
I53
tp5060
a(S'37.209.192.7'
p5061
I53
tp5062
a(S'37.209.198.7'
p5063
I53
tp5064
asS'ki'
p5065
(lp5066
(S'204.61.216.26'
p5067
I53
tp5068
a(S'208.78.71.87'
p5069
I53
tp5070
a(S'192.5.4.1'
p5071
I53
tp5072
a(S'208.78.70.87'
p5073
I53
tp5074
asS'camp'
p5075
(lp5076
(S'37.209.196.7'
p5077
I53
tp5078
a(S'37.209.194.7'
p5079
I53
tp5080
a(S'37.209.192.7'
p5081
I53
tp5082
a(S'37.209.198.7'
p5083
I53
tp5084
asS'frogans'
p5085
(lp5086
(S'194.0.36.1'
p5087
I53
tp5088
a(S'194.146.106.46'
p5089
I53
tp5090
a(S'194.0.9.1'
p5091
I53
tp5092
asS'futbol'
p5093
(lp5094
(S'37.209.196.7'
p5095
I53
tp5096
a(S'37.209.194.7'
p5097
I53
tp5098
a(S'37.209.192.7'
p5099
I53
tp5100
a(S'37.209.198.7'
p5101
I53
tp5102
asS'sohu'
p5103
(lp5104
(S'1.8.240.1'
p5105
I53
tp5106
a(S'119.167.248.154'
p5107
I53
tp5108
a(S'1.8.241.1'
p5109
I53
tp5110
a(S'1.8.243.1'
p5111
I53
tp5112
asS'kr'
p5113
(lp5114
(S'203.83.159.1'
p5115
I53
tp5116
a(S'203.248.246.220'
p5117
I53
tp5118
a(S'218.38.181.90'
p5119
I53
tp5120
a(S'61.74.75.1'
p5121
I53
tp5122
a(S'202.31.190.1'
p5123
I53
tp5124
a(S'202.30.124.100'
p5125
I53
tp5126
asS'latrobe'
p5127
(lp5128
(S'37.209.198.9'
p5129
I53
tp5130
a(S'37.209.192.9'
p5131
I53
tp5132
a(S'37.209.194.9'
p5133
I53
tp5134
a(S'37.209.196.9'
p5135
I53
tp5136
asS'axa'
p5137
(lp5138
(S'156.154.156.20'
p5139
I53
tp5140
a(S'156.154.144.20'
p5141
I53
tp5142
a(S'156.154.145.20'
p5143
I53
tp5144
a(S'156.154.158.20'
p5145
I53
tp5146
a(S'156.154.157.20'
p5147
I53
tp5148
a(S'156.154.159.20'
p5149
I53
tp5150
asS'kw'
p5151
(lp5152
(S'168.187.5.12'
p5153
I53
tp5154
a(S'161.252.48.150'
p5155
I53
tp5156
a(S'161.252.48.140'
p5157
I53
tp5158
a(S'161.252.48.145'
p5159
I53
tp5160
a(S'202.12.29.59'
p5161
I53
tp5162
a(S'192.5.4.1'
p5163
I53
tp5164
asS'panerai'
p5165
(lp5166
(S'156.154.158.132'
p5167
I53
tp5168
a(S'156.154.157.132'
p5169
I53
tp5170
a(S'156.154.156.132'
p5171
I53
tp5172
a(S'156.154.159.132'
p5173
I53
tp5174
a(S'156.154.145.132'
p5175
I53
tp5176
a(S'156.154.144.132'
p5177
I53
tp5178
asS'kz'
p5179
(lp5180
(S'194.0.21.5'
p5181
I53
tp5182
a(S'193.0.9.87'
p5183
I53
tp5184
asS'ky'
p5185
(lp5186
(S'199.19.7.19'
p5187
I53
tp5188
a(S'185.38.98.19'
p5189
I53
tp5190
a(S'199.19.1.19'
p5191
I53
tp5192
a(S'64.96.25.53'
p5193
I53
tp5194
asS'voting'
p5195
(lp5196
(S'194.0.26.6'
p5197
I53
tp5198
a(S'194.0.24.6'
p5199
I53
tp5200
a(S'194.0.25.17'
p5201
I53
tp5202
asS'bzh'
p5203
(lp5204
(S'194.0.36.1'
p5205
I53
tp5206
a(S'194.146.106.46'
p5207
I53
tp5208
a(S'194.0.9.1'
p5209
I53
tp5210
asS'golf'
p5211
(lp5212
(S'37.209.196.7'
p5213
I53
tp5214
a(S'37.209.194.7'
p5215
I53
tp5216
a(S'37.209.192.7'
p5217
I53
tp5218
a(S'37.209.198.7'
p5219
I53
tp5220
asS'gold'
p5221
(lp5222
(S'37.209.196.7'
p5223
I53
tp5224
a(S'37.209.194.7'
p5225
I53
tp5226
a(S'37.209.192.7'
p5227
I53
tp5228
a(S'37.209.198.7'
p5229
I53
tp5230
asS'cruises'
p5231
(lp5232
(S'37.209.196.7'
p5233
I53
tp5234
a(S'37.209.194.7'
p5235
I53
tp5236
a(S'37.209.192.7'
p5237
I53
tp5238
a(S'37.209.198.7'
p5239
I53
tp5240
asS'cheap'
p5241
(lp5242
(S'37.209.196.7'
p5243
I53
tp5244
a(S'37.209.194.7'
p5245
I53
tp5246
a(S'37.209.192.7'
p5247
I53
tp5248
a(S'37.209.198.7'
p5249
I53
tp5250
asS'solutions'
p5251
(lp5252
(S'37.209.196.7'
p5253
I53
tp5254
a(S'37.209.194.7'
p5255
I53
tp5256
a(S'37.209.192.7'
p5257
I53
tp5258
a(S'37.209.198.7'
p5259
I53
tp5260
asS'xn--mgba3a4f16a'
p5261
(lp5262
(S'193.189.123.2'
p5263
I53
tp5264
a(S'193.189.122.83'
p5265
I53
tp5266
a(S'193.0.9.85'
p5267
I53
tp5268
asS'help'
p5269
(lp5270
(S'199.19.7.9'
p5271
I53
tp5272
a(S'185.38.98.9'
p5273
I53
tp5274
a(S'64.96.25.53'
p5275
I53
tp5276
a(S'38.103.2.3'
p5277
I53
tp5278
a(S'199.19.1.9'
p5279
I53
tp5280
a(S'72.52.71.3'
p5281
I53
tp5282
a(S'63.243.194.3'
p5283
I53
tp5284
asS'partners'
p5285
(lp5286
(S'37.209.196.7'
p5287
I53
tp5288
a(S'37.209.194.7'
p5289
I53
tp5290
a(S'37.209.192.7'
p5291
I53
tp5292
a(S'37.209.198.7'
p5293
I53
tp5294
asS'forex'
p5295
(lp5296
(S'192.26.92.34'
p5297
I53
tp5298
a(S'192.35.51.34'
p5299
I53
tp5300
a(S'192.31.80.34'
p5301
I53
tp5302
a(S'192.41.162.34'
p5303
I53
tp5304
a(S'192.42.93.34'
p5305
I53
tp5306
a(S'192.54.112.34'
p5307
I53
tp5308
a(S'192.5.6.34'
p5309
I53
tp5310
asS'condos'
p5311
(lp5312
(S'37.209.196.7'
p5313
I53
tp5314
a(S'37.209.194.7'
p5315
I53
tp5316
a(S'37.209.192.7'
p5317
I53
tp5318
a(S'37.209.198.7'
p5319
I53
tp5320
asS'menu'
p5321
(lp5322
(S'37.209.198.10'
p5323
I53
tp5324
a(S'37.209.196.10'
p5325
I53
tp5326
a(S'37.209.194.10'
p5327
I53
tp5328
a(S'37.209.192.10'
p5329
I53
tp5330
asS'ngo'
p5331
(lp5332
(S'199.249.120.1'
p5333
I53
tp5334
a(S'199.19.56.1'
p5335
I53
tp5336
a(S'199.19.53.1'
p5337
I53
tp5338
a(S'199.19.57.1'
p5339
I53
tp5340
a(S'199.249.112.1'
p5341
I53
tp5342
a(S'199.19.54.1'
p5343
I53
tp5344
asS'arpa'
p5345
(lp5346
(S'192.203.230.10'
p5347
I53
tp5348
a(S'192.33.4.12'
p5349
I53
tp5350
a(S'199.7.83.42'
p5351
I53
tp5352
a(S'192.5.5.241'
p5353
I53
tp5354
a(S'128.63.2.53'
p5355
I53
tp5356
a(S'199.7.91.13'
p5357
I53
tp5358
a(S'192.112.36.4'
p5359
I53
tp5360
a(S'198.41.0.4'
p5361
I53
tp5362
a(S'192.228.79.201'
p5363
I53
tp5364
a(S'192.36.148.17'
p5365
I53
tp5366
a(S'193.0.14.129'
p5367
I53
tp5368
a(S'202.12.27.33'
p5369
I53
tp5370
asS'flights'
p5371
(lp5372
(S'37.209.196.7'
p5373
I53
tp5374
a(S'37.209.194.7'
p5375
I53
tp5376
a(S'37.209.192.7'
p5377
I53
tp5378
a(S'37.209.198.7'
p5379
I53
tp5380
asS'xn--lgbbat1ad8j'
p5381
(lp5382
(S'193.194.64.243'
p5383
I53
tp5384
a(S'213.179.160.68'
p5385
I53
tp5386
asS'black'
p5387
(lp5388
(S'65.22.69.33'
p5389
I53
tp5390
a(S'65.22.68.33'
p5391
I53
tp5392
a(S'65.22.70.33'
p5393
I53
tp5394
a(S'65.22.71.33'
p5395
I53
tp5396
asS'rich'
p5397
(lp5398
(S'65.22.137.17'
p5399
I53
tp5400
a(S'65.22.138.17'
p5401
I53
tp5402
a(S'65.22.139.17'
p5403
I53
tp5404
a(S'65.22.136.17'
p5405
I53
tp5406
asS'photo'
p5407
(lp5408
(S'72.52.71.3'
p5409
I53
tp5410
a(S'63.243.194.3'
p5411
I53
tp5412
a(S'38.103.2.3'
p5413
I53
tp5414
a(S'64.96.25.53'
p5415
I53
tp5416
asS'barclaycard'
p5417
(lp5418
(S'37.209.198.9'
p5419
I53
tp5420
a(S'37.209.192.9'
p5421
I53
tp5422
a(S'37.209.194.9'
p5423
I53
tp5424
a(S'37.209.196.9'
p5425
I53
tp5426
asS'xn--clchc0ea0b2g2a9gcd'
p5427
(lp5428
(S'194.0.1.16'
p5429
I53
tp5430
a(S'204.61.216.57'
p5431
I53
tp5432
a(S'137.189.6.21'
p5433
I53
tp5434
a(S'202.12.28.140'
p5435
I53
tp5436
asS'do'
p5437
(lp5438
(S'200.33.111.1'
p5439
I53
tp5440
a(S'149.20.61.87'
p5441
I53
tp5442
a(S'134.202.1.121'
p5443
I53
tp5444
a(S'200.16.91.228'
p5445
I53
tp5446
a(S'128.223.32.35'
p5447
I53
tp5448
a(S'192.5.4.1'
p5449
I53
tp5450
a(S'200.16.90.162'
p5451
I53
tp5452
a(S'200.16.91.226'
p5453
I53
tp5454
asS'dm'
p5455
(lp5456
(S'82.96.97.64'
p5457
I53
tp5458
a(S'217.114.173.6'
p5459
I53
tp5460
a(S'194.0.1.34'
p5461
I53
tp5462
a(S'199.127.196.35'
p5463
I53
tp5464
asS'dj'
p5465
(lp5466
(S'193.251.143.162'
p5467
I53
tp5468
a(S'194.51.3.49'
p5469
I53
tp5470
asS'dk'
p5471
(lp5472
(S'212.88.78.122'
p5473
I53
tp5474
a(S'208.76.168.244'
p5475
I53
tp5476
a(S'192.38.7.242'
p5477
I53
tp5478
a(S'193.163.102.222'
p5479
I53
tp5480
a(S'193.176.144.15'
p5481
I53
tp5482
a(S'194.0.47.42'
p5483
I53
tp5484
asS'gratis'
p5485
(lp5486
(S'37.209.196.7'
p5487
I53
tp5488
a(S'37.209.194.7'
p5489
I53
tp5490
a(S'37.209.192.7'
p5491
I53
tp5492
a(S'37.209.198.7'
p5493
I53
tp5494
asS'mormon'
p5495
(lp5496
(S'65.22.153.1'
p5497
I53
tp5498
a(S'65.22.154.1'
p5499
I53
tp5500
a(S'65.22.152.1'
p5501
I53
tp5502
a(S'65.22.155.1'
p5503
I53
tp5504
asS'express'
p5505
(lp5506
(S'37.209.196.7'
p5507
I53
tp5508
a(S'37.209.194.7'
p5509
I53
tp5510
a(S'37.209.192.7'
p5511
I53
tp5512
a(S'37.209.198.7'
p5513
I53
tp5514
asS'watch'
p5515
(lp5516
(S'37.209.196.7'
p5517
I53
tp5518
a(S'37.209.194.7'
p5519
I53
tp5520
a(S'37.209.192.7'
p5521
I53
tp5522
a(S'37.209.198.7'
p5523
I53
tp5524
asS'xn--80ao21a'
p5525
(lp5526
(S'194.0.21.5'
p5527
I53
tp5528
a(S'193.0.9.87'
p5529
I53
tp5530
asS'autos'
p5531
(lp5532
(S'65.22.101.9'
p5533
I53
tp5534
a(S'65.22.103.9'
p5535
I53
tp5536
a(S'65.22.100.9'
p5537
I53
tp5538
a(S'65.22.102.9'
p5539
I53
tp5540
asS'dz'
p5541
(lp5542
(S'193.0.9.71'
p5543
I53
tp5544
a(S'213.179.160.66'
p5545
I53
tp5546
a(S'196.216.168.36'
p5547
I53
tp5548
a(S'192.134.0.49'
p5549
I53
tp5550
a(S'193.194.64.242'
p5551
I53
tp5552
asS'international'
p5553
(lp5554
(S'37.209.196.7'
p5555
I53
tp5556
a(S'37.209.194.7'
p5557
I53
tp5558
a(S'37.209.192.7'
p5559
I53
tp5560
a(S'37.209.198.7'
p5561
I53
tp5562
asS'report'
p5563
(lp5564
(S'37.209.196.7'
p5565
I53
tp5566
a(S'37.209.194.7'
p5567
I53
tp5568
a(S'37.209.192.7'
p5569
I53
tp5570
a(S'37.209.198.7'
p5571
I53
tp5572
asS'versicherung'
p5573
(lp5574
(S'194.0.26.2'
p5575
I53
tp5576
a(S'194.0.25.13'
p5577
I53
tp5578
a(S'194.0.24.2'
p5579
I53
tp5580
asS'tips'
p5581
(lp5582
(S'37.209.196.7'
p5583
I53
tp5584
a(S'37.209.194.7'
p5585
I53
tp5586
a(S'37.209.192.7'
p5587
I53
tp5588
a(S'37.209.198.7'
p5589
I53
tp5590
asS'uol'
p5591
(lp5592
(S'200.219.159.10'
p5593
I53
tp5594
a(S'200.229.248.10'
p5595
I53
tp5596
a(S'200.192.233.10'
p5597
I53
tp5598
a(S'200.219.154.10'
p5599
I53
tp5600
a(S'200.160.0.10'
p5601
I53
tp5602
a(S'200.189.41.10'
p5603
I53
tp5604
asS'reit'
p5605
(lp5606
(S'194.0.2.2'
p5607
I53
tp5608
a(S'194.169.218.38'
p5609
I53
tp5610
a(S'194.0.1.45'
p5611
I53
tp5612
a(S'185.24.64.38'
p5613
I53
tp5614
asS'crs'
p5615
(lp5616
(S'192.26.92.34'
p5617
I53
tp5618
a(S'192.31.80.34'
p5619
I53
tp5620
a(S'192.41.162.34'
p5621
I53
tp5622
a(S'192.35.51.34'
p5623
I53
tp5624
a(S'192.42.93.34'
p5625
I53
tp5626
a(S'192.5.6.34'
p5627
I53
tp5628
a(S'192.54.112.34'
p5629
I53
tp5630
asS'budapest'
p5631
(lp5632
(S'72.42.114.9'
p5633
I53
tp5634
a(S'72.0.50.9'
p5635
I53
tp5636
a(S'70.40.0.9'
p5637
I53
tp5638
a(S'70.40.8.9'
p5639
I53
tp5640
asS'bar'
p5641
(lp5642
(S'194.0.2.2'
p5643
I53
tp5644
a(S'194.0.1.45'
p5645
I53
tp5646
a(S'194.169.218.56'
p5647
I53
tp5648
a(S'185.24.64.56'
p5649
I53
tp5650
asS'motorcycles'
p5651
(lp5652
(S'65.22.104.1'
p5653
I53
tp5654
a(S'65.22.106.1'
p5655
I53
tp5656
a(S'65.22.105.1'
p5657
I53
tp5658
a(S'65.22.107.1'
p5659
I53
tp5660
asS'kn'
p5661
(lp5662
(S'61.220.48.1'
p5663
I53
tp5664
a(S'203.73.24.8'
p5665
I53
tp5666
a(S'210.201.138.58'
p5667
I53
tp5668
asS'qa'
p5669
(lp5670
(S'212.77.192.15'
p5671
I53
tp5672
a(S'37.209.194.6'
p5673
I53
tp5674
a(S'212.77.192.10'
p5675
I53
tp5676
a(S'212.77.192.13'
p5677
I53
tp5678
a(S'204.61.216.62'
p5679
I53
tp5680
a(S'178.23.16.104'
p5681
I53
tp5682
a(S'38.103.2.3'
p5683
I53
tp5684
a(S'178.23.17.104'
p5685
I53
tp5686
a(S'193.0.9.51'
p5687
I53
tp5688
a(S'72.52.71.3'
p5689
I53
tp5690
a(S'37.209.192.6'
p5691
I53
tp5692
asS'shiksha'
p5693
(lp5694
(S'65.22.32.33'
p5695
I53
tp5696
a(S'65.22.33.33'
p5697
I53
tp5698
a(S'65.22.34.33'
p5699
I53
tp5700
a(S'65.22.35.33'
p5701
I53
tp5702
asS'xn--nqv7fs00ema'
p5703
(lp5704
(S'65.22.184.9'
p5705
I53
tp5706
a(S'65.22.186.9'
p5707
I53
tp5708
a(S'65.22.185.9'
p5709
I53
tp5710
a(S'65.22.187.9'
p5711
I53
tp5712
asS'vision'
p5713
(lp5714
(S'37.209.196.7'
p5715
I53
tp5716
a(S'37.209.194.7'
p5717
I53
tp5718
a(S'37.209.192.7'
p5719
I53
tp5720
a(S'37.209.198.7'
p5721
I53
tp5722
asS'yandex'
p5723
(lp5724
(S'156.154.144.186'
p5725
I53
tp5726
a(S'156.154.156.186'
p5727
I53
tp5728
a(S'156.154.159.186'
p5729
I53
tp5730
a(S'156.154.157.186'
p5731
I53
tp5732
a(S'156.154.158.186'
p5733
I53
tp5734
a(S'156.154.145.186'
p5735
I53
tp5736
asS'sew'
p5737
(lp5738
(S'65.22.190.25'
p5739
I53
tp5740
a(S'65.22.189.25'
p5741
I53
tp5742
a(S'65.22.191.25'
p5743
I53
tp5744
a(S'65.22.188.25'
p5745
I53
tp5746
asS'km'
p5747
(lp5748
(S'196.216.168.46'
p5749
I53
tp5750
a(S'197.255.224.66'
p5751
I53
tp5752
a(S'197.255.224.18'
p5753
I53
tp5754
asS'seat'
p5755
(lp5756
(S'195.253.64.12'
p5757
I53
tp5758
a(S'195.253.64.11'
p5759
I53
tp5760
a(S'195.253.65.12'
p5761
I53
tp5762
a(S'195.253.65.11'
p5763
I53
tp5764
asS'cologne'
p5765
(lp5766
(S'195.253.64.12'
p5767
I53
tp5768
a(S'195.253.65.12'
p5769
I53
tp5770
a(S'195.253.64.11'
p5771
I53
tp5772
a(S'195.253.65.11'
p5773
I53
tp5774
asS'pink'
p5775
(lp5776
(S'65.22.31.17'
p5777
I53
tp5778
a(S'65.22.29.17'
p5779
I53
tp5780
a(S'65.22.28.17'
p5781
I53
tp5782
a(S'65.22.30.17'
p5783
I53
tp5784
asS'computer'
p5785
(lp5786
(S'37.209.196.7'
p5787
I53
tp5788
a(S'37.209.194.7'
p5789
I53
tp5790
a(S'37.209.192.7'
p5791
I53
tp5792
a(S'37.209.198.7'
p5793
I53
tp5794
asS'college'
p5795
(lp5796
(S'194.0.2.2'
p5797
I53
tp5798
a(S'185.24.64.44'
p5799
I53
tp5800
a(S'194.169.218.44'
p5801
I53
tp5802
a(S'194.0.1.45'
p5803
I53
tp5804
asS'leclerc'
p5805
(lp5806
(S'194.0.36.1'
p5807
I53
tp5808
a(S'194.146.106.46'
p5809
I53
tp5810
a(S'194.0.9.1'
p5811
I53
tp5812
asS'fail'
p5813
(lp5814
(S'37.209.196.7'
p5815
I53
tp5816
a(S'37.209.194.7'
p5817
I53
tp5818
a(S'37.209.192.7'
p5819
I53
tp5820
a(S'37.209.198.7'
p5821
I53
tp5822
asS'xn--vuq861b'
p5823
(lp5824
(S'42.83.131.1'
p5825
I53
tp5826
a(S'42.83.134.1'
p5827
I53
tp5828
a(S'42.83.133.1'
p5829
I53
tp5830
a(S'42.83.130.1'
p5831
I53
tp5832
a(S'42.83.132.1'
p5833
I53
tp5834
asS'news'
p5835
(lp5836
(S'37.209.196.7'
p5837
I53
tp5838
a(S'37.209.194.7'
p5839
I53
tp5840
a(S'37.209.192.7'
p5841
I53
tp5842
a(S'37.209.198.7'
p5843
I53
tp5844
asS'best'
p5845
(lp5846
(S'156.154.157.24'
p5847
I53
tp5848
a(S'156.154.156.24'
p5849
I53
tp5850
a(S'156.154.158.24'
p5851
I53
tp5852
a(S'156.154.145.24'
p5853
I53
tp5854
a(S'156.154.144.24'
p5855
I53
tp5856
a(S'156.154.159.24'
p5857
I53
tp5858
asS'gmail'
p5859
(lp5860
(S'216.239.32.105'
p5861
I53
tp5862
a(S'216.239.38.105'
p5863
I53
tp5864
a(S'216.239.36.105'
p5865
I53
tp5866
a(S'216.239.60.105'
p5867
I53
tp5868
a(S'216.239.34.105'
p5869
I53
tp5870
asS'voyage'
p5871
(lp5872
(S'37.209.196.7'
p5873
I53
tp5874
a(S'37.209.194.7'
p5875
I53
tp5876
a(S'37.209.192.7'
p5877
I53
tp5878
a(S'37.209.198.7'
p5879
I53
tp5880
asS'expert'
p5881
(lp5882
(S'37.209.196.7'
p5883
I53
tp5884
a(S'37.209.194.7'
p5885
I53
tp5886
a(S'37.209.192.7'
p5887
I53
tp5888
a(S'37.209.198.7'
p5889
I53
tp5890
asS'movie'
p5891
(lp5892
(S'37.209.196.7'
p5893
I53
tp5894
a(S'37.209.194.7'
p5895
I53
tp5896
a(S'37.209.192.7'
p5897
I53
tp5898
a(S'37.209.198.7'
p5899
I53
tp5900
asS'review'
p5901
(lp5902
(S'156.154.172.35'
p5903
I53
tp5904
a(S'156.154.173.35'
p5905
I53
tp5906
a(S'156.154.170.35'
p5907
I53
tp5908
a(S'156.154.169.35'
p5909
I53
tp5910
a(S'156.154.174.35'
p5911
I53
tp5912
a(S'156.154.171.35'
p5913
I53
tp5914
asS'fans'
p5915
(lp5916
(S'194.0.2.2'
p5917
I53
tp5918
a(S'194.169.218.39'
p5919
I53
tp5920
a(S'194.0.1.45'
p5921
I53
tp5922
a(S'185.24.64.39'
p5923
I53
tp5924
asS'diamonds'
p5925
(lp5926
(S'37.209.196.7'
p5927
I53
tp5928
a(S'37.209.194.7'
p5929
I53
tp5930
a(S'37.209.192.7'
p5931
I53
tp5932
a(S'37.209.198.7'
p5933
I53
tp5934
asS'xn--6qq986b3xl'
p5935
(lp5936
(S'111.12.148.111'
p5937
I53
tp5938
a(S'1.8.241.1'
p5939
I53
tp5940
asS'email'
p5941
(lp5942
(S'37.209.196.7'
p5943
I53
tp5944
a(S'37.209.194.7'
p5945
I53
tp5946
a(S'37.209.192.7'
p5947
I53
tp5948
a(S'37.209.198.7'
p5949
I53
tp5950
asS'wf'
p5951
(lp5952
(S'194.0.36.1'
p5953
I53
tp5954
a(S'194.146.106.46'
p5955
I53
tp5956
a(S'193.176.144.22'
p5957
I53
tp5958
a(S'192.5.4.2'
p5959
I53
tp5960
a(S'194.0.9.1'
p5961
I53
tp5962
asS'jobs'
p5963
(lp5964
(S'192.26.92.34'
p5965
I53
tp5966
a(S'192.31.80.34'
p5967
I53
tp5968
a(S'192.41.162.34'
p5969
I53
tp5970
a(S'192.35.51.34'
p5971
I53
tp5972
a(S'192.42.93.34'
p5973
I53
tp5974
a(S'192.5.6.34'
p5975
I53
tp5976
a(S'192.54.112.34'
p5977
I53
tp5978
asS'bargains'
p5979
(lp5980
(S'37.209.196.7'
p5981
I53
tp5982
a(S'37.209.194.7'
p5983
I53
tp5984
a(S'37.209.192.7'
p5985
I53
tp5986
a(S'37.209.198.7'
p5987
I53
tp5988
asS'erni'
p5989
(lp5990
(S'195.253.64.12'
p5991
I53
tp5992
a(S'195.253.65.12'
p5993
I53
tp5994
a(S'195.253.64.11'
p5995
I53
tp5996
a(S'195.253.65.11'
p5997
I53
tp5998
asS'jp'
p5999
(lp6000
(S'192.50.43.53'
p6001
I53
tp6002
a(S'202.12.30.131'
p6003
I53
tp6004
a(S'203.119.1.1'
p6005
I53
tp6006
a(S'203.119.40.1'
p6007
I53
tp6008
a(S'210.138.175.244'
p6009
I53
tp6010
a(S'156.154.100.5'
p6011
I53
tp6012
a(S'150.100.6.8'
p6013
I53
tp6014
asS'jm'
p6015
(lp6016
(S'196.2.1.6'
p6017
I53
tp6018
a(S'193.0.9.82'
p6019
I53
tp6020
a(S'196.3.191.66'
p6021
I53
tp6022
asS'jo'
p6023
(lp6024
(S'193.188.69.19'
p6025
I53
tp6026
a(S'193.188.66.2'
p6027
I53
tp6028
a(S'193.188.66.103'
p6029
I53
tp6030
a(S'193.0.9.83'
p6031
I53
tp6032
a(S'147.28.0.39'
p6033
I53
tp6034
asS'ws'
p6035
(lp6036
(S'64.70.19.80'
p6037
I53
tp6038
a(S'64.70.19.70'
p6039
I53
tp6040
a(S'67.221.178.52'
p6041
I53
tp6042
a(S'67.221.178.53'
p6043
I53
tp6044
a(S'77.92.65.174'
p6045
I53
tp6046
a(S'77.92.65.172'
p6047
I53
tp6048
asS'wtf'
p6049
(lp6050
(S'37.209.196.7'
p6051
I53
tp6052
a(S'37.209.194.7'
p6053
I53
tp6054
a(S'37.209.192.7'
p6055
I53
tp6056
a(S'37.209.198.7'
p6057
I53
tp6058
asS'je'
p6059
(lp6060
(S'202.46.190.131'
p6061
I53
tp6062
a(S'204.61.216.74'
p6063
I53
tp6064
a(S'193.63.94.20'
p6065
I53
tp6066
a(S'193.201.42.178'
p6067
I53
tp6068
a(S'128.86.1.20'
p6069
I53
tp6070
a(S'194.146.106.86'
p6071
I53
tp6072
asS'cymru'
p6073
(lp6074
(S'195.66.240.130'
p6075
I53
tp6076
a(S'217.79.164.131'
p6077
I53
tp6078
a(S'194.83.244.131'
p6079
I53
tp6080
a(S'213.246.167.131'
p6081
I53
tp6082
a(S'213.248.254.130'
p6083
I53
tp6084
a(S'212.121.40.130'
p6085
I53
tp6086
asS'xn--90a3ac'
p6087
(lp6088
(S'204.61.216.32'
p6089
I53
tp6090
a(S'147.91.8.6'
p6091
I53
tp6092
a(S'91.199.17.59'
p6093
I53
tp6094
a(S'194.146.106.114'
p6095
I53
tp6096
a(S'192.5.4.1'
p6097
I53
tp6098
a(S'91.199.17.60'
p6099
I53
tp6100
asS'wtc'
p6101
(lp6102
(S'37.209.198.9'
p6103
I53
tp6104
a(S'37.209.192.9'
p6105
I53
tp6106
a(S'37.209.194.9'
p6107
I53
tp6108
a(S'37.209.196.9'
p6109
I53
tp6110
asS'restaurant'
p6111
(lp6112
(S'37.209.196.7'
p6113
I53
tp6114
a(S'37.209.194.7'
p6115
I53
tp6116
a(S'37.209.192.7'
p6117
I53
tp6118
a(S'37.209.198.7'
p6119
I53
tp6120
asS'career'
p6121
(lp6122
(S'192.26.92.34'
p6123
I53
tp6124
a(S'192.35.51.34'
p6125
I53
tp6126
a(S'192.31.80.34'
p6127
I53
tp6128
a(S'192.41.162.34'
p6129
I53
tp6130
a(S'192.42.93.34'
p6131
I53
tp6132
a(S'192.54.112.34'
p6133
I53
tp6134
a(S'192.5.6.34'
p6135
I53
tp6136
asS'country'
p6137
(lp6138
(S'72.42.114.17'
p6139
I53
tp6140
a(S'72.0.50.17'
p6141
I53
tp6142
asS'la'
p6143
(lp6144
(S'194.169.218.14'
p6145
I53
tp6146
a(S'185.24.64.14'
p6147
I53
tp6148
a(S'185.24.64.15'
p6149
I53
tp6150
a(S'194.169.218.15'
p6151
I53
tp6152
asS'komatsu'
p6153
(lp6154
(S'37.209.198.9'
p6155
I53
tp6156
a(S'37.209.192.9'
p6157
I53
tp6158
a(S'37.209.194.9'
p6159
I53
tp6160
a(S'37.209.196.9'
p6161
I53
tp6162
asS'buzz'
p6163
(lp6164
(S'156.154.156.29'
p6165
I53
tp6166
a(S'156.154.158.29'
p6167
I53
tp6168
a(S'156.154.159.29'
p6169
I53
tp6170
a(S'156.154.157.29'
p6171
I53
tp6172
a(S'156.154.144.29'
p6173
I53
tp6174
a(S'156.154.145.29'
p6175
I53
tp6176
asS'com'
p6177
(lp6178
(S'192.26.92.30'
p6179
I53
tp6180
a(S'192.33.14.30'
p6181
I53
tp6182
a(S'192.31.80.30'
p6183
I53
tp6184
a(S'192.48.79.30'
p6185
I53
tp6186
a(S'192.55.83.30'
p6187
I53
tp6188
a(S'192.35.51.30'
p6189
I53
tp6190
a(S'192.54.112.30'
p6191
I53
tp6192
a(S'192.41.162.30'
p6193
I53
tp6194
a(S'192.52.178.30'
p6195
I53
tp6196
a(S'192.5.6.30'
p6197
I53
tp6198
a(S'192.12.94.30'
p6199
I53
tp6200
a(S'192.42.93.30'
p6201
I53
tp6202
a(S'192.43.172.30'
p6203
I53
tp6204
asS'uno'
p6205
(lp6206
(S'156.154.159.173'
p6207
I53
tp6208
a(S'156.154.156.173'
p6209
I53
tp6210
a(S'156.154.158.173'
p6211
I53
tp6212
a(S'156.154.144.173'
p6213
I53
tp6214
a(S'156.154.145.173'
p6215
I53
tp6216
a(S'156.154.157.173'
p6217
I53
tp6218
asS'ck'
p6219
(lp6220
(S'130.195.5.12'
p6221
I53
tp6222
a(S'130.195.6.10'
p6223
I53
tp6224
a(S'202.65.32.128'
p6225
I53
tp6226
a(S'202.65.32.127'
p6227
I53
tp6228
asS'ro'
p6229
(lp6230
(S'81.91.161.99'
p6231
I53
tp6232
a(S'192.162.16.18'
p6233
I53
tp6234
a(S'192.162.16.20'
p6235
I53
tp6236
a(S'78.104.145.6'
p6237
I53
tp6238
a(S'192.5.4.1'
p6239
I53
tp6240
a(S'193.230.31.230'
p6241
I53
tp6242
asS'ci'
p6243
(lp6244
(S'193.50.53.3'
p6245
I53
tp6246
a(S'196.216.168.30'
p6247
I53
tp6248
a(S'213.136.100.83'
p6249
I53
tp6250
a(S'213.136.100.81'
p6251
I53
tp6252
a(S'128.223.32.35'
p6253
I53
tp6254
a(S'192.134.0.49'
p6255
I53
tp6256
a(S'193.0.9.67'
p6257
I53
tp6258
asS'ch'
p6259
(lp6260
(S'130.59.1.80'
p6261
I53
tp6262
a(S'200.160.0.5'
p6263
I53
tp6264
a(S'147.28.0.39'
p6265
I53
tp6266
a(S'194.0.17.1'
p6267
I53
tp6268
a(S'130.59.211.10'
p6269
I53
tp6270
a(S'194.42.48.120'
p6271
I53
tp6272
a(S'194.146.106.10'
p6273
I53
tp6274
asS'co'
p6275
(lp6276
(S'156.154.102.25'
p6277
I53
tp6278
a(S'156.154.101.25'
p6279
I53
tp6280
a(S'156.154.104.25'
p6281
I53
tp6282
a(S'156.154.100.25'
p6283
I53
tp6284
a(S'156.154.105.25'
p6285
I53
tp6286
a(S'156.154.103.25'
p6287
I53
tp6288
asS'cn'
p6289
(lp6290
(S'203.119.26.1'
p6291
I53
tp6292
a(S'203.119.27.1'
p6293
I53
tp6294
a(S'203.119.28.1'
p6295
I53
tp6296
a(S'202.112.0.44'
p6297
I53
tp6298
a(S'203.119.25.1'
p6299
I53
tp6300
a(S'203.119.29.1'
p6301
I53
tp6302
asS'cm'
p6303
(lp6304
(S'193.0.9.68'
p6305
I53
tp6306
a(S'195.24.192.34'
p6307
I53
tp6308
a(S'156.106.192.121'
p6309
I53
tp6310
a(S'198.6.1.82'
p6311
I53
tp6312
a(S'195.24.192.17'
p6313
I53
tp6314
asS'cl'
p6315
(lp6316
(S'204.61.216.30'
p6317
I53
tp6318
a(S'200.16.112.16'
p6319
I53
tp6320
a(S'200.1.121.10'
p6321
I53
tp6322
a(S'194.146.106.34'
p6323
I53
tp6324
a(S'200.7.4.7'
p6325
I53
tp6326
a(S'192.5.4.1'
p6327
I53
tp6328
asS'cc'
p6329
(lp6330
(S'192.26.92.34'
p6331
I53
tp6332
a(S'192.42.93.34'
p6333
I53
tp6334
a(S'192.31.80.34'
p6335
I53
tp6336
a(S'192.41.162.34'
p6337
I53
tp6338
a(S'192.35.51.34'
p6339
I53
tp6340
a(S'192.54.112.34'
p6341
I53
tp6342
a(S'192.5.6.34'
p6343
I53
tp6344
asS'sky'
p6345
(lp6346
(S'192.26.92.34'
p6347
I53
tp6348
a(S'192.35.51.34'
p6349
I53
tp6350
a(S'192.31.80.34'
p6351
I53
tp6352
a(S'192.41.162.34'
p6353
I53
tp6354
a(S'192.42.93.34'
p6355
I53
tp6356
a(S'192.54.112.34'
p6357
I53
tp6358
a(S'192.5.6.34'
p6359
I53
tp6360
asS'ca'
p6361
(lp6362
(S'192.228.28.9'
p6363
I53
tp6364
a(S'192.228.30.9'
p6365
I53
tp6366
a(S'199.4.144.2'
p6367
I53
tp6368
a(S'199.19.4.1'
p6369
I53
tp6370
a(S'198.182.167.1'
p6371
I53
tp6372
asS'cg'
p6373
(lp6374
(S'192.36.125.2'
p6375
I53
tp6376
a(S'196.43.240.147'
p6377
I53
tp6378
a(S'128.112.129.15'
p6379
I53
tp6380
a(S'213.193.157.30'
p6381
I53
tp6382
asS'cf'
p6383
(lp6384
(S'185.21.169.17'
p6385
I53
tp6386
a(S'185.21.171.17'
p6387
I53
tp6388
a(S'185.21.168.17'
p6389
I53
tp6390
a(S'185.21.170.17'
p6391
I53
tp6392
asS'community'
p6393
(lp6394
(S'37.209.196.7'
p6395
I53
tp6396
a(S'37.209.194.7'
p6397
I53
tp6398
a(S'37.209.192.7'
p6399
I53
tp6400
a(S'37.209.198.7'
p6401
I53
tp6402
asS'cd'
p6403
(lp6404
(S'196.25.1.1'
p6405
I53
tp6406
a(S'196.43.1.9'
p6407
I53
tp6408
a(S'204.61.216.66'
p6409
I53
tp6410
a(S'128.112.129.15'
p6411
I53
tp6412
asS'cz'
p6413
(lp6414
(S'194.0.14.1'
p6415
I53
tp6416
a(S'194.0.13.1'
p6417
I53
tp6418
a(S'193.29.206.1'
p6419
I53
tp6420
a(S'194.0.12.1'
p6421
I53
tp6422
asS'cy'
p6423
(lp6424
(S'202.12.28.140'
p6425
I53
tp6426
a(S'204.61.216.44'
p6427
I53
tp6428
a(S'194.42.1.50'
p6429
I53
tp6430
a(S'139.91.191.3'
p6431
I53
tp6432
a(S'194.42.1.55'
p6433
I53
tp6434
a(S'204.70.57.242'
p6435
I53
tp6436
a(S'194.42.29.1'
p6437
I53
tp6438
asS'cx'
p6439
(lp6440
(S'199.19.5.3'
p6441
I53
tp6442
a(S'204.61.216.16'
p6443
I53
tp6444
a(S'199.19.6.3'
p6445
I53
tp6446
asS'church'
p6447
(lp6448
(S'37.209.196.7'
p6449
I53
tp6450
a(S'37.209.194.7'
p6451
I53
tp6452
a(S'37.209.192.7'
p6453
I53
tp6454
a(S'37.209.198.7'
p6455
I53
tp6456
asS'cr'
p6457
(lp6458
(S'193.0.9.69'
p6459
I53
tp6460
a(S'200.107.82.100'
p6461
I53
tp6462
a(S'200.33.111.1'
p6463
I53
tp6464
a(S'204.61.216.89'
p6465
I53
tp6466
a(S'38.103.2.3'
p6467
I53
tp6468
a(S'72.52.71.3'
p6469
I53
tp6470
a(S'63.243.194.3'
p6471
I53
tp6472
a(S'200.1.123.14'
p6473
I53
tp6474
asS'trust'
p6475
(lp6476
(S'37.209.198.10'
p6477
I53
tp6478
a(S'37.209.196.10'
p6479
I53
tp6480
a(S'37.209.194.10'
p6481
I53
tp6482
a(S'37.209.192.10'
p6483
I53
tp6484
asS'cw'
p6485
(lp6486
(S'65.208.122.63'
p6487
I53
tp6488
a(S'193.0.9.86'
p6489
I53
tp6490
a(S'65.208.122.36'
p6491
I53
tp6492
a(S'193.63.94.20'
p6493
I53
tp6494
a(S'128.86.1.20'
p6495
I53
tp6496
a(S'198.93.177.21'
p6497
I53
tp6498
a(S'200.26.199.99'
p6499
I53
tp6500
a(S'65.174.238.100'
p6501
I53
tp6502
asS'cv'
p6503
(lp6504
(S'193.136.7.17'
p6505
I53
tp6506
a(S'41.221.192.220'
p6507
I53
tp6508
a(S'193.136.192.40'
p6509
I53
tp6510
a(S'198.6.1.82'
p6511
I53
tp6512
a(S'192.5.4.1'
p6513
I53
tp6514
a(S'204.152.184.64'
p6515
I53
tp6516
asS'cu'
p6517
(lp6518
(S'169.158.128.88'
p6519
I53
tp6520
a(S'169.158.128.136'
p6521
I53
tp6522
a(S'204.59.1.222'
p6523
I53
tp6524
a(S'147.28.0.39'
p6525
I53
tp6526
a(S'200.160.0.5'
p6527
I53
tp6528
a(S'193.0.9.70'
p6529
I53
tp6530
asS'bingo'
p6531
(lp6532
(S'37.209.196.7'
p6533
I53
tp6534
a(S'37.209.194.7'
p6535
I53
tp6536
a(S'37.209.192.7'
p6537
I53
tp6538
a(S'37.209.198.7'
p6539
I53
tp6540
asS'ps'
p6541
(lp6542
(S'147.28.0.39'
p6543
I53
tp6544
a(S'204.61.216.29'
p6545
I53
tp6546
a(S'193.0.9.105'
p6547
I53
tp6548
a(S'213.244.82.147'
p6549
I53
tp6550
a(S'77.72.229.254'
p6551
I53
tp6552
a(S'194.6.225.20'
p6553
I53
tp6554
asS'graphics'
p6555
(lp6556
(S'37.209.196.7'
p6557
I53
tp6558
a(S'37.209.194.7'
p6559
I53
tp6560
a(S'37.209.192.7'
p6561
I53
tp6562
a(S'37.209.198.7'
p6563
I53
tp6564
asS'java'
p6565
(lp6566
(S'192.26.92.34'
p6567
I53
tp6568
a(S'192.35.51.34'
p6569
I53
tp6570
a(S'192.31.80.34'
p6571
I53
tp6572
a(S'192.41.162.34'
p6573
I53
tp6574
a(S'192.42.93.34'
p6575
I53
tp6576
a(S'192.54.112.34'
p6577
I53
tp6578
a(S'192.5.6.34'
p6579
I53
tp6580
asS'pw'
p6581
(lp6582
(S'185.24.64.12'
p6583
I53
tp6584
a(S'185.24.64.13'
p6585
I53
tp6586
a(S'194.169.218.12'
p6587
I53
tp6588
a(S'194.169.218.13'
p6589
I53
tp6590
asS'pt'
p6591
(lp6592
(S'200.160.0.5'
p6593
I53
tp6594
a(S'193.136.0.1'
p6595
I53
tp6596
a(S'195.129.12.74'
p6597
I53
tp6598
a(S'193.136.2.226'
p6599
I53
tp6600
a(S'192.5.4.1'
p6601
I53
tp6602
a(S'192.93.0.4'
p6603
I53
tp6604
a(S'195.129.12.82'
p6605
I53
tp6606
a(S'185.49.140.61'
p6607
I53
tp6608
asS'chrome'
p6609
(lp6610
(S'216.239.32.105'
p6611
I53
tp6612
a(S'216.239.38.105'
p6613
I53
tp6614
a(S'216.239.36.105'
p6615
I53
tp6616
a(S'216.239.60.105'
p6617
I53
tp6618
a(S'216.239.34.105'
p6619
I53
tp6620
asS'wien'
p6621
(lp6622
(S'194.0.24.4'
p6623
I53
tp6624
a(S'194.0.25.15'
p6625
I53
tp6626
a(S'194.0.26.4'
p6627
I53
tp6628
asS'py'
p6629
(lp6630
(S'200.10.228.133'
p6631
I53
tp6632
a(S'200.10.228.132'
p6633
I53
tp6634
a(S'198.6.1.65'
p6635
I53
tp6636
a(S'200.160.0.5'
p6637
I53
tp6638
a(S'193.0.9.106'
p6639
I53
tp6640
a(S'130.59.138.49'
p6641
I53
tp6642
a(S'200.33.111.1'
p6643
I53
tp6644
asS'bbc'
p6645
(lp6646
(S'195.66.240.130'
p6647
I53
tp6648
a(S'217.79.164.131'
p6649
I53
tp6650
a(S'194.83.244.131'
p6651
I53
tp6652
a(S'213.246.167.131'
p6653
I53
tp6654
a(S'213.248.254.130'
p6655
I53
tp6656
a(S'212.121.40.130'
p6657
I53
tp6658
asS'frl'
p6659
(lp6660
(S'195.253.64.7'
p6661
I53
tp6662
a(S'54.75.231.175'
p6663
I53
tp6664
a(S'195.253.64.4'
p6665
I53
tp6666
a(S'89.207.190.16'
p6667
I53
tp6668
asS'int'
p6669
(lp6670
(S'193.63.94.20'
p6671
I53
tp6672
a(S'193.0.9.4'
p6673
I53
tp6674
a(S'128.16.5.32'
p6675
I53
tp6676
a(S'137.39.1.3'
p6677
I53
tp6678
a(S'128.86.1.20'
p6679
I53
tp6680
a(S'199.4.138.53'
p6681
I53
tp6682
asS'beer'
p6683
(lp6684
(S'72.0.50.14'
p6685
I53
tp6686
a(S'72.42.114.14'
p6687
I53
tp6688
a(S'70.40.8.14'
p6689
I53
tp6690
a(S'70.40.0.14'
p6691
I53
tp6692
asS'gmx'
p6693
(lp6694
(S'195.253.65.11'
p6695
I53
tp6696
a(S'195.253.65.12'
p6697
I53
tp6698
a(S'195.253.64.11'
p6699
I53
tp6700
a(S'195.253.64.12'
p6701
I53
tp6702
asS'pf'
p6703
(lp6704
(S'202.3.225.20'
p6705
I53
tp6706
a(S'202.3.225.10'
p6707
I53
tp6708
asS'pg'
p6709
(lp6710
(S'137.39.1.3'
p6711
I53
tp6712
a(S'202.1.32.49'
p6713
I53
tp6714
a(S'202.165.192.23'
p6715
I53
tp6716
a(S'202.165.192.24'
p6717
I53
tp6718
a(S'202.29.151.3'
p6719
I53
tp6720
asS'whoswho'
p6721
(lp6722
(S'156.154.159.180'
p6723
I53
tp6724
a(S'156.154.157.180'
p6725
I53
tp6726
a(S'156.154.144.180'
p6727
I53
tp6728
a(S'156.154.156.180'
p6729
I53
tp6730
a(S'156.154.158.180'
p6731
I53
tp6732
a(S'156.154.145.180'
p6733
I53
tp6734
asS'pe'
p6735
(lp6736
(S'200.1.176.4'
p6737
I53
tp6738
a(S'194.146.106.82'
p6739
I53
tp6740
a(S'204.61.216.85'
p6741
I53
tp6742
a(S'192.5.4.1'
p6743
I53
tp6744
asS'pk'
p6745
(lp6746
(S'107.6.141.90'
p6747
I53
tp6748
a(S'119.81.34.90'
p6749
I53
tp6750
a(S'199.192.75.54'
p6751
I53
tp6752
a(S'162.252.84.2'
p6753
I53
tp6754
asS'ph'
p6755
(lp6756
(S'193.0.9.104'
p6757
I53
tp6758
a(S'194.0.1.23'
p6759
I53
tp6760
a(S'137.189.6.21'
p6761
I53
tp6762
a(S'202.12.31.141'
p6763
I53
tp6764
a(S'192.5.4.1'
p6765
I53
tp6766
asS'kitchen'
p6767
(lp6768
(S'37.209.196.7'
p6769
I53
tp6770
a(S'37.209.194.7'
p6771
I53
tp6772
a(S'37.209.192.7'
p6773
I53
tp6774
a(S'37.209.198.7'
p6775
I53
tp6776
asS'pn'
p6777
(lp6778
(S'80.68.93.100'
p6779
I53
tp6780
a(S'173.230.153.180'
p6781
I53
tp6782
a(S'77.72.229.254'
p6783
I53
tp6784
a(S'192.5.4.1'
p6785
I53
tp6786
asS'temasek'
p6787
(lp6788
(S'65.22.140.9'
p6789
I53
tp6790
a(S'65.22.142.9'
p6791
I53
tp6792
a(S'65.22.141.9'
p6793
I53
tp6794
a(S'65.22.143.9'
p6795
I53
tp6796
asS'pl'
p6797
(lp6798
(S'77.79.212.238'
p6799
I53
tp6800
a(S'194.0.1.2'
p6801
I53
tp6802
a(S'93.190.128.146'
p6803
I53
tp6804
a(S'46.28.245.82'
p6805
I53
tp6806
a(S'81.15.133.186'
p6807
I53
tp6808
a(S'156.154.100.15'
p6809
I53
tp6810
a(S'149.156.1.252'
p6811
I53
tp6812
a(S'194.181.87.156'
p6813
I53
tp6814
asS'pm'
p6815
(lp6816
(S'194.0.36.1'
p6817
I53
tp6818
a(S'192.5.4.2'
p6819
I53
tp6820
a(S'193.176.144.22'
p6821
I53
tp6822
a(S'194.146.106.46'
p6823
I53
tp6824
a(S'194.0.9.1'
p6825
I53
tp6826
asS'website'
p6827
(lp6828
(S'194.169.218.52'
p6829
I53
tp6830
a(S'185.24.64.52'
p6831
I53
tp6832
a(S'212.18.251.52'
p6833
I53
tp6834
a(S'185.24.67.52'
p6835
I53
tp6836
asS'life'
p6837
(lp6838
(S'37.209.196.7'
p6839
I53
tp6840
a(S'37.209.194.7'
p6841
I53
tp6842
a(S'37.209.192.7'
p6843
I53
tp6844
a(S'37.209.198.7'
p6845
I53
tp6846
asS'xn--fiq228c5hs'
p6847
(lp6848
(S'65.22.189.1'
p6849
I53
tp6850
a(S'65.22.190.1'
p6851
I53
tp6852
a(S'65.22.188.1'
p6853
I53
tp6854
a(S'65.22.191.1'
p6855
I53
tp6856
asS'cbn'
p6857
(lp6858
(S'156.154.158.35'
p6859
I53
tp6860
a(S'156.154.156.35'
p6861
I53
tp6862
a(S'156.154.157.35'
p6863
I53
tp6864
a(S'156.154.145.35'
p6865
I53
tp6866
a(S'156.154.144.35'
p6867
I53
tp6868
a(S'156.154.159.35'
p6869
I53
tp6870
asS'nra'
p6871
(lp6872
(S'65.22.243.25'
p6873
I53
tp6874
a(S'65.22.240.25'
p6875
I53
tp6876
a(S'65.22.242.25'
p6877
I53
tp6878
a(S'65.22.241.25'
p6879
I53
tp6880
asS'aero'
p6881
(lp6882
(S'199.254.54.1'
p6883
I53
tp6884
a(S'199.254.51.1'
p6885
I53
tp6886
a(S'81.91.161.68'
p6887
I53
tp6888
a(S'199.249.115.1'
p6889
I53
tp6890
a(S'199.254.53.1'
p6891
I53
tp6892
a(S'199.249.123.1'
p6893
I53
tp6894
a(S'199.254.52.1'
p6895
I53
tp6896
a(S'130.59.138.49'
p6897
I53
tp6898
a(S'195.253.6.62'
p6899
I53
tp6900
asS'enterprises'
p6901
(lp6902
(S'37.209.196.7'
p6903
I53
tp6904
a(S'37.209.194.7'
p6905
I53
tp6906
a(S'37.209.192.7'
p6907
I53
tp6908
a(S'37.209.198.7'
p6909
I53
tp6910
asS'fund'
p6911
(lp6912
(S'37.209.196.7'
p6913
I53
tp6914
a(S'37.209.194.7'
p6915
I53
tp6916
a(S'37.209.192.7'
p6917
I53
tp6918
a(S'37.209.198.7'
p6919
I53
tp6920
asS'gal'
p6921
(lp6922
(S'195.253.64.12'
p6923
I53
tp6924
a(S'195.253.65.12'
p6925
I53
tp6926
a(S'195.253.64.11'
p6927
I53
tp6928
a(S'195.253.65.11'
p6929
I53
tp6930
asS'bmw'
p6931
(lp6932
(S'203.119.88.75'
p6933
I53
tp6934
a(S'203.119.88.76'
p6935
I53
tp6936
a(S'72.0.48.76'
p6937
I53
tp6938
a(S'72.0.48.75'
p6939
I53
tp6940
asS'hamburg'
p6941
(lp6942
(S'194.0.25.21'
p6943
I53
tp6944
a(S'194.0.26.10'
p6945
I53
tp6946
a(S'194.0.24.10'
p6947
I53
tp6948
asS'ggee'
p6949
(lp6950
(S'65.22.166.1'
p6951
I53
tp6952
a(S'120.29.254.11'
p6953
I53
tp6954
a(S'65.22.167.1'
p6955
I53
tp6956
a(S'120.29.252.11'
p6957
I53
tp6958
a(S'65.22.165.1'
p6959
I53
tp6960
asS'nrw'
p6961
(lp6962
(S'195.253.65.11'
p6963
I53
tp6964
a(S'195.253.64.11'
p6965
I53
tp6966
a(S'195.253.65.12'
p6967
I53
tp6968
a(S'195.253.64.12'
p6969
I53
tp6970
asS'aquarelle'
p6971
(lp6972
(S'194.0.36.1'
p6973
I53
tp6974
a(S'194.146.106.46'
p6975
I53
tp6976
a(S'194.0.9.1'
p6977
I53
tp6978
asS'homes'
p6979
(lp6980
(S'65.22.100.33'
p6981
I53
tp6982
a(S'65.22.103.33'
p6983
I53
tp6984
a(S'65.22.102.33'
p6985
I53
tp6986
a(S'65.22.101.33'
p6987
I53
tp6988
asS'schmidt'
p6989
(lp6990
(S'37.209.198.9'
p6991
I53
tp6992
a(S'37.209.192.9'
p6993
I53
tp6994
a(S'37.209.194.9'
p6995
I53
tp6996
a(S'37.209.196.9'
p6997
I53
tp6998
asS'casa'
p6999
(lp7000
(S'70.40.0.6'
p7001
I53
tp7002
a(S'70.40.8.6'
p7003
I53
tp7004
a(S'72.0.50.6'
p7005
I53
tp7006
a(S'72.42.114.6'
p7007
I53
tp7008
asS'airforce'
p7009
(lp7010
(S'37.209.196.7'
p7011
I53
tp7012
a(S'37.209.194.7'
p7013
I53
tp7014
a(S'37.209.192.7'
p7015
I53
tp7016
a(S'37.209.198.7'
p7017
I53
tp7018
asS'sex'
p7019
(lp7020
(S'199.115.155.1'
p7021
I53
tp7022
a(S'199.115.156.1'
p7023
I53
tp7024
a(S'199.115.152.1'
p7025
I53
tp7026
a(S'199.115.157.1'
p7027
I53
tp7028
a(S'199.115.153.1'
p7029
I53
tp7030
a(S'199.115.154.1'
p7031
I53
tp7032
asS'cash'
p7033
(lp7034
(S'37.209.196.7'
p7035
I53
tp7036
a(S'37.209.194.7'
p7037
I53
tp7038
a(S'37.209.192.7'
p7039
I53
tp7040
a(S'37.209.198.7'
p7041
I53
tp7042
asS'cern'
p7043
(lp7044
(S'65.22.225.1'
p7045
I53
tp7046
a(S'65.22.227.1'
p7047
I53
tp7048
a(S'65.22.224.1'
p7049
I53
tp7050
a(S'65.22.226.1'
p7051
I53
tp7052
asS'ar'
p7053
(lp7054
(S'200.108.148.50'
p7055
I53
tp7056
a(S'130.59.138.49'
p7057
I53
tp7058
a(S'200.16.97.17'
p7059
I53
tp7060
a(S'168.101.16.10'
p7061
I53
tp7062
a(S'193.0.9.59'
p7063
I53
tp7064
a(S'200.108.145.50'
p7065
I53
tp7066
asS''
p7067
(lp7068
(S'192.203.230.10'
p7069
I53
tp7070
a(S'192.33.4.12'
p7071
I53
tp7072
a(S'192.5.5.241'
p7073
I53
tp7074
a(S'199.7.83.42'
p7075
I53
tp7076
a(S'199.7.91.13'
p7077
I53
tp7078
a(S'128.63.2.53'
p7079
I53
tp7080
a(S'192.112.36.4'
p7081
I53
tp7082
a(S'198.41.0.4'
p7083
I53
tp7084
a(S'192.228.79.201'
p7085
I53
tp7086
a(S'192.58.128.30'
p7087
I53
tp7088
a(S'192.36.148.17'
p7089
I53
tp7090
a(S'193.0.14.129'
p7091
I53
tp7092
a(S'202.12.27.33'
p7093
I53
tp7094
asS'pictures'
p7095
(lp7096
(S'37.209.196.7'
p7097
I53
tp7098
a(S'37.209.194.7'
p7099
I53
tp7100
a(S'37.209.192.7'
p7101
I53
tp7102
a(S'37.209.198.7'
p7103
I53
tp7104
asS'property'
p7105
(lp7106
(S'63.243.194.3'
p7107
I53
tp7108
a(S'38.103.2.3'
p7109
I53
tp7110
a(S'72.52.71.3'
p7111
I53
tp7112
a(S'199.19.7.16'
p7113
I53
tp7114
a(S'64.96.25.53'
p7115
I53
tp7116
a(S'199.19.1.16'
p7117
I53
tp7118
a(S'185.38.98.16'
p7119
I53
tp7120
asS'xn--o3cw4h'
p7121
(lp7122
(S'61.19.242.38'
p7123
I53
tp7124
a(S'202.28.0.1'
p7125
I53
tp7126
a(S'202.28.1.22'
p7127
I53
tp7128
asS'guide'
p7129
(lp7130
(S'37.209.196.7'
p7131
I53
tp7132
a(S'37.209.194.7'
p7133
I53
tp7134
a(S'37.209.192.7'
p7135
I53
tp7136
a(S'37.209.198.7'
p7137
I53
tp7138
asS'yokohama'
p7139
(lp7140
(S'65.22.166.1'
p7141
I53
tp7142
a(S'120.29.254.11'
p7143
I53
tp7144
a(S'65.22.167.1'
p7145
I53
tp7146
a(S'120.29.252.11'
p7147
I53
tp7148
a(S'65.22.165.1'
p7149
I53
tp7150
asS'dad'
p7151
(lp7152
(S'216.239.32.105'
p7153
I53
tp7154
a(S'216.239.38.105'
p7155
I53
tp7156
a(S'216.239.36.105'
p7157
I53
tp7158
a(S'216.239.60.105'
p7159
I53
tp7160
a(S'216.239.34.105'
p7161
I53
tp7162
asS'vc'
p7163
(lp7164
(S'199.249.124.1'
p7165
I53
tp7166
a(S'199.254.60.1'
p7167
I53
tp7168
a(S'199.254.62.1'
p7169
I53
tp7170
a(S'199.249.116.1'
p7171
I53
tp7172
a(S'199.254.59.1'
p7173
I53
tp7174
a(S'199.254.61.1'
p7175
I53
tp7176
asS'aw'
p7177
(lp7178
(S'201.229.0.26'
p7179
I53
tp7180
a(S'201.229.0.27'
p7181
I53
tp7182
a(S'194.0.28.2'
p7183
I53
tp7184
a(S'194.171.17.13'
p7185
I53
tp7186
a(S'95.142.99.215'
p7187
I53
tp7188
a(S'213.154.241.88'
p7189
I53
tp7190
a(S'193.176.144.13'
p7191
I53
tp7192
asS'doha'
p7193
(lp7194
(S'37.209.198.9'
p7195
I53
tp7196
a(S'37.209.192.9'
p7197
I53
tp7198
a(S'37.209.194.9'
p7199
I53
tp7200
a(S'37.209.196.9'
p7201
I53
tp7202
asS'vg'
p7203
(lp7204
(S'194.0.11.102'
p7205
I53
tp7206
a(S'204.61.216.84'
p7207
I53
tp7208
asS'iq'
p7209
(lp7210
(S'194.117.57.100'
p7211
I53
tp7212
a(S'199.19.5.8'
p7213
I53
tp7214
a(S'194.117.58.42'
p7215
I53
tp7216
a(S'199.19.6.8'
p7217
I53
tp7218
a(S'192.5.4.1'
p7219
I53
tp7220
asS'ventures'
p7221
(lp7222
(S'37.209.196.7'
p7223
I53
tp7224
a(S'37.209.194.7'
p7225
I53
tp7226
a(S'37.209.192.7'
p7227
I53
tp7228
a(S'37.209.198.7'
p7229
I53
tp7230
asS'is'
p7231
(lp7232
(S'194.146.106.58'
p7233
I53
tp7234
a(S'192.36.125.2'
p7235
I53
tp7236
a(S'193.0.9.81'
p7237
I53
tp7238
a(S'130.208.16.20'
p7239
I53
tp7240
a(S'192.5.4.1'
p7241
I53
tp7242
a(S'193.4.58.51'
p7243
I53
tp7244
asS'ir'
p7245
(lp7246
(S'193.189.123.2'
p7247
I53
tp7248
a(S'193.171.255.77'
p7249
I53
tp7250
a(S'193.189.122.83'
p7251
I53
tp7252
a(S'193.0.9.85'
p7253
I53
tp7254
asS'canon'
p7255
(lp7256
(S'65.22.166.1'
p7257
I53
tp7258
a(S'120.29.254.11'
p7259
I53
tp7260
a(S'65.22.167.1'
p7261
I53
tp7262
a(S'120.29.252.11'
p7263
I53
tp7264
a(S'65.22.165.1'
p7265
I53
tp7266
asS'it'
p7267
(lp7268
(S'193.206.141.46'
p7269
I53
tp7270
a(S'194.119.192.34'
p7271
I53
tp7272
a(S'192.12.192.5'
p7273
I53
tp7274
a(S'194.146.106.30'
p7275
I53
tp7276
a(S'194.0.16.215'
p7277
I53
tp7278
a(S'194.0.1.22'
p7279
I53
tp7280
a(S'217.29.76.4'
p7281
I53
tp7282
asS'rip'
p7283
(lp7284
(S'37.209.196.7'
p7285
I53
tp7286
a(S'37.209.194.7'
p7287
I53
tp7288
a(S'37.209.192.7'
p7289
I53
tp7290
a(S'37.209.198.7'
p7291
I53
tp7292
asS'rio'
p7293
(lp7294
(S'200.219.159.10'
p7295
I53
tp7296
a(S'200.229.248.10'
p7297
I53
tp7298
a(S'200.192.233.10'
p7299
I53
tp7300
a(S'200.219.154.10'
p7301
I53
tp7302
a(S'200.160.0.10'
p7303
I53
tp7304
a(S'200.189.41.10'
p7305
I53
tp7306
asS'xn--mgbc0a9azcg'
p7307
(lp7308
(S'192.93.0.4'
p7309
I53
tp7310
a(S'81.192.108.164'
p7311
I53
tp7312
a(S'81.192.108.228'
p7313
I53
tp7314
a(S'194.204.241.140'
p7315
I53
tp7316
asS'im'
p7317
(lp7318
(S'217.23.160.50'
p7319
I53
tp7320
a(S'80.168.83.242'
p7321
I53
tp7322
a(S'193.62.157.66'
p7323
I53
tp7324
a(S'217.23.163.140'
p7325
I53
tp7326
asS'il'
p7327
(lp7328
(S'128.139.35.5'
p7329
I53
tp7330
a(S'192.115.141.253'
p7331
I53
tp7332
a(S'192.115.7.53'
p7333
I53
tp7334
a(S'194.146.106.122'
p7335
I53
tp7336
a(S'192.5.4.1'
p7337
I53
tp7338
a(S'192.115.7.60'
p7339
I53
tp7340
a(S'128.139.34.240'
p7341
I53
tp7342
a(S'149.20.56.132'
p7343
I53
tp7344
a(S'81.91.161.212'
p7345
I53
tp7346
asS'io'
p7347
(lp7348
(S'64.251.31.179'
p7349
I53
tp7350
a(S'49.212.31.192'
p7351
I53
tp7352
a(S'49.212.51.85'
p7353
I53
tp7354
a(S'194.0.2.1'
p7355
I53
tp7356
a(S'78.104.145.37'
p7357
I53
tp7358
a(S'91.208.95.130'
p7359
I53
tp7360
a(S'194.0.1.1'
p7361
I53
tp7362
asS'in'
p7363
(lp7364
(S'199.253.57.1'
p7365
I53
tp7366
a(S'194.0.1.7'
p7367
I53
tp7368
a(S'199.253.56.1'
p7369
I53
tp7370
a(S'125.19.40.90'
p7371
I53
tp7372
a(S'199.249.125.1'
p7373
I53
tp7374
a(S'115.249.164.142'
p7375
I53
tp7376
a(S'199.7.87.1'
p7377
I53
tp7378
a(S'199.249.117.1'
p7379
I53
tp7380
asS'xn--nqv7f'
p7381
(lp7382
(S'65.22.186.17'
p7383
I53
tp7384
a(S'65.22.185.17'
p7385
I53
tp7386
a(S'65.22.184.17'
p7387
I53
tp7388
a(S'65.22.187.17'
p7389
I53
tp7390
asS'pics'
p7391
(lp7392
(S'72.52.71.3'
p7393
I53
tp7394
a(S'63.243.194.3'
p7395
I53
tp7396
a(S'38.103.2.3'
p7397
I53
tp7398
a(S'64.96.25.53'
p7399
I53
tp7400
asS'ie'
p7401
(lp7402
(S'199.19.2.1'
p7403
I53
tp7404
a(S'194.146.106.98'
p7405
I53
tp7406
a(S'77.72.72.34'
p7407
I53
tp7408
a(S'192.111.39.100'
p7409
I53
tp7410
a(S'199.19.3.1'
p7411
I53
tp7412
a(S'192.93.0.4'
p7413
I53
tp7414
a(S'77.72.229.245'
p7415
I53
tp7416
a(S'77.72.72.44'
p7417
I53
tp7418
asS'id'
p7419
(lp7420
(S'103.19.177.177'
p7421
I53
tp7422
a(S'103.19.178.178'
p7423
I53
tp7424
a(S'202.155.30.227'
p7425
I53
tp7426
a(S'103.19.179.179'
p7427
I53
tp7428
a(S'202.12.28.140'
p7429
I53
tp7430
asS'tattoo'
p7431
(lp7432
(S'64.96.25.53'
p7433
I53
tp7434
a(S'38.103.2.3'
p7435
I53
tp7436
a(S'72.52.71.3'
p7437
I53
tp7438
a(S'199.19.1.18'
p7439
I53
tp7440
a(S'185.38.98.18'
p7441
I53
tp7442
a(S'63.243.194.3'
p7443
I53
tp7444
a(S'199.19.7.18'
p7445
I53
tp7446
asS'memorial'
p7447
(lp7448
(S'37.209.196.7'
p7449
I53
tp7450
a(S'37.209.194.7'
p7451
I53
tp7452
a(S'37.209.192.7'
p7453
I53
tp7454
a(S'37.209.198.7'
p7455
I53
tp7456
asS'cafe'
p7457
(lp7458
(S'37.209.196.7'
p7459
I53
tp7460
a(S'37.209.194.7'
p7461
I53
tp7462
a(S'37.209.192.7'
p7463
I53
tp7464
a(S'37.209.198.7'
p7465
I53
tp7466
asS'ing'
p7467
(lp7468
(S'216.239.32.105'
p7469
I53
tp7470
a(S'216.239.38.105'
p7471
I53
tp7472
a(S'216.239.36.105'
p7473
I53
tp7474
a(S'216.239.60.105'
p7475
I53
tp7476
a(S'216.239.34.105'
p7477
I53
tp7478
asS'nf'
p7479
(lp7480
(S'199.19.5.10'
p7481
I53
tp7482
a(S'199.19.6.10'
p7483
I53
tp7484
a(S'204.61.216.51'
p7485
I53
tp7486
asS'media'
p7487
(lp7488
(S'37.209.196.7'
p7489
I53
tp7490
a(S'37.209.194.7'
p7491
I53
tp7492
a(S'37.209.192.7'
p7493
I53
tp7494
a(S'37.209.198.7'
p7495
I53
tp7496
asS'xn--mxtq1m'
p7497
(lp7498
(S'202.169.175.130'
p7499
I53
tp7500
a(S'60.199.165.185'
p7501
I53
tp7502
a(S'211.20.231.7'
p7503
I53
tp7504
a(S'203.73.24.25'
p7505
I53
tp7506
asS'parts'
p7507
(lp7508
(S'37.209.196.7'
p7509
I53
tp7510
a(S'37.209.194.7'
p7511
I53
tp7512
a(S'37.209.192.7'
p7513
I53
tp7514
a(S'37.209.198.7'
p7515
I53
tp7516
asS'ltda'
p7517
(lp7518
(S'65.22.116.17'
p7519
I53
tp7520
a(S'65.22.117.17'
p7521
I53
tp7522
a(S'65.22.118.17'
p7523
I53
tp7524
a(S'65.22.119.17'
p7525
I53
tp7526
asS'android'
p7527
(lp7528
(S'216.239.32.105'
p7529
I53
tp7530
a(S'216.239.38.105'
p7531
I53
tp7532
a(S'216.239.36.105'
p7533
I53
tp7534
a(S'216.239.60.105'
p7535
I53
tp7536
a(S'216.239.34.105'
p7537
I53
tp7538
asS'events'
p7539
(lp7540
(S'37.209.196.7'
p7541
I53
tp7542
a(S'37.209.194.7'
p7543
I53
tp7544
a(S'37.209.192.7'
p7545
I53
tp7546
a(S'37.209.198.7'
p7547
I53
tp7548
asS'xn--d1acj3b'
p7549
(lp7550
(S'193.232.142.17'
p7551
I53
tp7552
a(S'194.85.252.62'
p7553
I53
tp7554
a(S'193.232.156.17'
p7555
I53
tp7556
a(S'194.190.124.17'
p7557
I53
tp7558
a(S'193.232.128.6'
p7559
I53
tp7560
asS'town'
p7561
(lp7562
(S'37.209.196.7'
p7563
I53
tp7564
a(S'37.209.194.7'
p7565
I53
tp7566
a(S'37.209.192.7'
p7567
I53
tp7568
a(S'37.209.198.7'
p7569
I53
tp7570
asS'social'
p7571
(lp7572
(S'37.209.196.7'
p7573
I53
tp7574
a(S'37.209.194.7'
p7575
I53
tp7576
a(S'37.209.192.7'
p7577
I53
tp7578
a(S'37.209.198.7'
p7579
I53
tp7580
asS'reisen'
p7581
(lp7582
(S'37.209.196.7'
p7583
I53
tp7584
a(S'37.209.194.7'
p7585
I53
tp7586
a(S'37.209.192.7'
p7587
I53
tp7588
a(S'37.209.198.7'
p7589
I53
tp7590
asS'jetzt'
p7591
(lp7592
(S'156.154.157.86'
p7593
I53
tp7594
a(S'156.154.145.86'
p7595
I53
tp7596
a(S'156.154.159.86'
p7597
I53
tp7598
a(S'156.154.144.86'
p7599
I53
tp7600
a(S'156.154.158.86'
p7601
I53
tp7602
a(S'156.154.156.86'
p7603
I53
tp7604
asS'mov'
p7605
(lp7606
(S'216.239.32.105'
p7607
I53
tp7608
a(S'216.239.38.105'
p7609
I53
tp7610
a(S'216.239.36.105'
p7611
I53
tp7612
a(S'216.239.60.105'
p7613
I53
tp7614
a(S'216.239.34.105'
p7615
I53
tp7616
asS'infiniti'
p7617
(lp7618
(S'65.22.166.1'
p7619
I53
tp7620
a(S'120.29.254.11'
p7621
I53
tp7622
a(S'65.22.167.1'
p7623
I53
tp7624
a(S'120.29.252.11'
p7625
I53
tp7626
a(S'65.22.165.1'
p7627
I53
tp7628
asS'cleaning'
p7629
(lp7630
(S'37.209.196.7'
p7631
I53
tp7632
a(S'37.209.194.7'
p7633
I53
tp7634
a(S'37.209.192.7'
p7635
I53
tp7636
a(S'37.209.198.7'
p7637
I53
tp7638
asS'bloomberg'
p7639
(lp7640
(S'192.26.92.34'
p7641
I53
tp7642
a(S'192.42.93.34'
p7643
I53
tp7644
a(S'192.31.80.34'
p7645
I53
tp7646
a(S'192.41.162.34'
p7647
I53
tp7648
a(S'192.35.51.34'
p7649
I53
tp7650
a(S'192.54.112.34'
p7651
I53
tp7652
a(S'192.5.6.34'
p7653
I53
tp7654
asS'contractors'
p7655
(lp7656
(S'37.209.196.7'
p7657
I53
tp7658
a(S'37.209.194.7'
p7659
I53
tp7660
a(S'37.209.192.7'
p7661
I53
tp7662
a(S'37.209.198.7'
p7663
I53
tp7664
asS'yoga'
p7665
(lp7666
(S'72.42.114.27'
p7667
I53
tp7668
a(S'72.0.50.27'
p7669
I53
tp7670
asS'brussels'
p7671
(lp7672
(S'194.0.25.14'
p7673
I53
tp7674
a(S'194.0.43.1'
p7675
I53
tp7676
a(S'194.0.37.1'
p7677
I53
tp7678
a(S'194.0.6.1'
p7679
I53
tp7680
a(S'194.0.44.1'
p7681
I53
tp7682
asS'insure'
p7683
(lp7684
(S'37.209.196.7'
p7685
I53
tp7686
a(S'37.209.194.7'
p7687
I53
tp7688
a(S'37.209.192.7'
p7689
I53
tp7690
a(S'37.209.198.7'
p7691
I53
tp7692
asS'mobi'
p7693
(lp7694
(S'199.249.118.1'
p7695
I53
tp7696
a(S'199.254.57.1'
p7697
I53
tp7698
a(S'199.254.56.1'
p7699
I53
tp7700
a(S'199.249.126.1'
p7701
I53
tp7702
a(S'199.254.58.1'
p7703
I53
tp7704
a(S'199.254.55.1'
p7705
I53
tp7706
asS'center'
p7707
(lp7708
(S'37.209.196.7'
p7709
I53
tp7710
a(S'37.209.194.7'
p7711
I53
tp7712
a(S'37.209.192.7'
p7713
I53
tp7714
a(S'37.209.198.7'
p7715
I53
tp7716
asS'xn--1qqw23a'
p7717
(lp7718
(S'42.83.131.1'
p7719
I53
tp7720
a(S'42.83.134.1'
p7721
I53
tp7722
a(S'42.83.133.1'
p7723
I53
tp7724
a(S'42.83.130.1'
p7725
I53
tp7726
a(S'42.83.132.1'
p7727
I53
tp7728
asS'xn--l1acc'
p7729
(lp7730
(S'180.149.98.78'
p7731
I53
tp7732
a(S'218.100.84.27'
p7733
I53
tp7734
a(S'202.170.80.40'
p7735
I53
tp7736
asS'otsuka'
p7737
(lp7738
(S'65.22.166.1'
p7739
I53
tp7740
a(S'120.29.254.11'
p7741
I53
tp7742
a(S'65.22.167.1'
p7743
I53
tp7744
a(S'120.29.252.11'
p7745
I53
tp7746
a(S'65.22.165.1'
p7747
I53
tp7748
asS'taipei'
p7749
(lp7750
(S'156.154.159.156'
p7751
I53
tp7752
a(S'156.154.144.156'
p7753
I53
tp7754
a(S'156.154.157.156'
p7755
I53
tp7756
a(S'156.154.145.156'
p7757
I53
tp7758
a(S'156.154.156.156'
p7759
I53
tp7760
a(S'156.154.158.156'
p7761
I53
tp7762
asS'claims'
p7763
(lp7764
(S'37.209.196.7'
p7765
I53
tp7766
a(S'37.209.194.7'
p7767
I53
tp7768
a(S'37.209.192.7'
p7769
I53
tp7770
a(S'37.209.198.7'
p7771
I53
tp7772
asS'audio'
p7773
(lp7774
(S'185.38.98.1'
p7775
I53
tp7776
a(S'199.19.1.1'
p7777
I53
tp7778
a(S'199.19.7.1'
p7779
I53
tp7780
a(S'64.96.25.53'
p7781
I53
tp7782
a(S'38.103.2.3'
p7783
I53
tp7784
a(S'72.52.71.3'
p7785
I53
tp7786
a(S'63.243.194.3'
p7787
I53
tp7788
asS'investments'
p7789
(lp7790
(S'37.209.196.7'
p7791
I53
tp7792
a(S'37.209.194.7'
p7793
I53
tp7794
a(S'37.209.192.7'
p7795
I53
tp7796
a(S'37.209.198.7'
p7797
I53
tp7798
asS'juegos'
p7799
(lp7800
(S'64.96.25.53'
p7801
I53
tp7802
a(S'38.103.2.3'
p7803
I53
tp7804
a(S'199.19.7.12'
p7805
I53
tp7806
a(S'72.52.71.3'
p7807
I53
tp7808
a(S'63.243.194.3'
p7809
I53
tp7810
a(S'199.19.1.12'
p7811
I53
tp7812
a(S'185.38.98.12'
p7813
I53
tp7814
asS'praxi'
p7815
(lp7816
(S'156.154.156.139'
p7817
I53
tp7818
a(S'156.154.158.139'
p7819
I53
tp7820
a(S'156.154.145.139'
p7821
I53
tp7822
a(S'156.154.157.139'
p7823
I53
tp7824
a(S'156.154.144.139'
p7825
I53
tp7826
a(S'156.154.159.139'
p7827
I53
tp7828
asS'money'
p7829
(lp7830
(S'37.209.196.7'
p7831
I53
tp7832
a(S'37.209.194.7'
p7833
I53
tp7834
a(S'37.209.192.7'
p7835
I53
tp7836
a(S'37.209.198.7'
p7837
I53
tp7838
asS'rest'
p7839
(lp7840
(S'194.0.2.2'
p7841
I53
tp7842
a(S'185.24.64.35'
p7843
I53
tp7844
a(S'194.0.1.45'
p7845
I53
tp7846
a(S'194.169.218.35'
p7847
I53
tp7848
asS'lds'
p7849
(lp7850
(S'65.22.153.9'
p7851
I53
tp7852
a(S'65.22.154.9'
p7853
I53
tp7854
a(S'65.22.152.9'
p7855
I53
tp7856
a(S'65.22.155.9'
p7857
I53
tp7858
asS'tirol'
p7859
(lp7860
(S'194.0.25.20'
p7861
I53
tp7862
a(S'194.0.24.9'
p7863
I53
tp7864
a(S'194.0.26.9'
p7865
I53
tp7866
asS'clinic'
p7867
(lp7868
(S'37.209.196.7'
p7869
I53
tp7870
a(S'37.209.194.7'
p7871
I53
tp7872
a(S'37.209.192.7'
p7873
I53
tp7874
a(S'37.209.198.7'
p7875
I53
tp7876
asS'fishing'
p7877
(lp7878
(S'72.0.50.5'
p7879
I53
tp7880
a(S'72.42.114.5'
p7881
I53
tp7882
a(S'70.40.8.5'
p7883
I53
tp7884
a(S'70.40.0.5'
p7885
I53
tp7886
asS'pohl'
p7887
(lp7888
(S'203.119.88.75'
p7889
I53
tp7890
a(S'203.119.88.76'
p7891
I53
tp7892
a(S'72.0.48.76'
p7893
I53
tp7894
a(S'72.0.48.75'
p7895
I53
tp7896
asS'ng'
p7897
(lp7898
(S'204.13.250.93'
p7899
I53
tp7900
a(S'208.78.70.93'
p7901
I53
tp7902
a(S'204.61.216.40'
p7903
I53
tp7904
a(S'194.0.1.29'
p7905
I53
tp7906
a(S'41.222.79.3'
p7907
I53
tp7908
asS'xn--node'
p7909
(lp7910
(S'185.21.168.36'
p7911
I53
tp7912
a(S'204.61.216.88'
p7913
I53
tp7914
a(S'185.21.171.36'
p7915
I53
tp7916
a(S'185.21.169.36'
p7917
I53
tp7918
a(S'185.21.170.36'
p7919
I53
tp7920
asS'gdn'
p7921
(lp7922
(S'167.114.102.194'
p7923
I53
tp7924
a(S'194.0.1.37'
p7925
I53
tp7926
asS'osaka'
p7927
(lp7928
(S'156.154.158.130'
p7929
I53
tp7930
a(S'156.154.156.130'
p7931
I53
tp7932
a(S'156.154.157.130'
p7933
I53
tp7934
a(S'156.154.144.130'
p7935
I53
tp7936
a(S'156.154.145.130'
p7937
I53
tp7938
a(S'156.154.159.130'
p7939
I53
tp7940
asS'gmo'
p7941
(lp7942
(S'65.22.166.1'
p7943
I53
tp7944
a(S'120.29.254.11'
p7945
I53
tp7946
a(S'65.22.167.1'
p7947
I53
tp7948
a(S'120.29.252.11'
p7949
I53
tp7950
a(S'65.22.165.1'
p7951
I53
tp7952
asS'ads'
p7953
(lp7954
(S'216.239.32.105'
p7955
I53
tp7956
a(S'216.239.38.105'
p7957
I53
tp7958
a(S'216.239.36.105'
p7959
I53
tp7960
a(S'216.239.60.105'
p7961
I53
tp7962
a(S'216.239.34.105'
p7963
I53
tp7964
asS'wed'
p7965
(lp7966
(S'199.19.6.19'
p7967
I53
tp7968
a(S'199.19.5.19'
p7969
I53
tp7970
a(S'72.0.49.1'
p7971
I53
tp7972
a(S'72.42.113.1'
p7973
I53
tp7974
asS'supply'
p7975
(lp7976
(S'37.209.196.7'
p7977
I53
tp7978
a(S'37.209.194.7'
p7979
I53
tp7980
a(S'37.209.192.7'
p7981
I53
tp7982
a(S'37.209.198.7'
p7983
I53
tp7984
asS'education'
p7985
(lp7986
(S'37.209.196.7'
p7987
I53
tp7988
a(S'37.209.194.7'
p7989
I53
tp7990
a(S'37.209.192.7'
p7991
I53
tp7992
a(S'37.209.198.7'
p7993
I53
tp7994
asS'pharmacy'
p7995
(lp7996
(S'156.154.157.135'
p7997
I53
tp7998
a(S'156.154.158.135'
p7999
I53
tp8000
a(S'156.154.145.135'
p8001
I53
tp8002
a(S'156.154.159.135'
p8003
I53
tp8004
a(S'156.154.144.135'
p8005
I53
tp8006
a(S'156.154.156.135'
p8007
I53
tp8008
asS'scot'
p8009
(lp8010
(S'195.253.65.11'
p8011
I53
tp8012
a(S'195.253.65.12'
p8013
I53
tp8014
a(S'195.253.64.11'
p8015
I53
tp8016
a(S'195.253.64.12'
p8017
I53
tp8018
asS'blackfriday'
p8019
(lp8020
(S'185.38.98.2'
p8021
I53
tp8022
a(S'199.19.1.2'
p8023
I53
tp8024
a(S'199.19.7.2'
p8025
I53
tp8026
a(S'64.96.25.53'
p8027
I53
tp8028
a(S'38.103.2.3'
p8029
I53
tp8030
a(S'72.52.71.3'
p8031
I53
tp8032
a(S'63.243.194.3'
p8033
I53
tp8034
asS'sydney'
p8035
(lp8036
(S'37.209.198.10'
p8037
I53
tp8038
a(S'37.209.196.10'
p8039
I53
tp8040
a(S'37.209.194.10'
p8041
I53
tp8042
a(S'37.209.192.10'
p8043
I53
tp8044
asS'win'
p8045
(lp8046
(S'156.154.159.182'
p8047
I53
tp8048
a(S'156.154.145.182'
p8049
I53
tp8050
a(S'156.154.144.182'
p8051
I53
tp8052
a(S'156.154.156.182'
p8053
I53
tp8054
a(S'156.154.158.182'
p8055
I53
tp8056
a(S'156.154.157.182'
p8057
I53
tp8058
asS'xn--ygbi2ammx'
p8059
(lp8060
(S'213.244.82.147'
p8061
I53
tp8062
a(S'212.14.253.242'
p8063
I53
tp8064
a(S'208.64.68.60'
p8065
I53
tp8066
a(S'208.64.68.164'
p8067
I53
tp8068
a(S'194.6.225.20'
p8069
I53
tp8070
asS'loan'
p8071
(lp8072
(S'156.154.158.106'
p8073
I53
tp8074
a(S'156.154.156.106'
p8075
I53
tp8076
a(S'156.154.144.106'
p8077
I53
tp8078
a(S'156.154.159.106'
p8079
I53
tp8080
a(S'156.154.157.106'
p8081
I53
tp8082
a(S'156.154.145.106'
p8083
I53
tp8084
asS'careers'
p8085
(lp8086
(S'37.209.196.7'
p8087
I53
tp8088
a(S'37.209.194.7'
p8089
I53
tp8090
a(S'37.209.192.7'
p8091
I53
tp8092
a(S'37.209.198.7'
p8093
I53
tp8094
asS'luxury'
p8095
(lp8096
(S'37.209.198.10'
p8097
I53
tp8098
a(S'37.209.196.10'
p8099
I53
tp8100
a(S'37.209.194.10'
p8101
I53
tp8102
a(S'37.209.192.10'
p8103
I53
tp8104
asS'allfinanz'
p8105
(lp8106
(S'203.119.88.75'
p8107
I53
tp8108
a(S'203.119.88.76'
p8109
I53
tp8110
a(S'72.0.48.76'
p8111
I53
tp8112
a(S'72.0.48.75'
p8113
I53
tp8114
asS'bio'
p8115
(lp8116
(S'203.119.88.75'
p8117
I53
tp8118
a(S'203.119.88.76'
p8119
I53
tp8120
a(S'72.0.48.76'
p8121
I53
tp8122
a(S'72.0.48.75'
p8123
I53
tp8124
asS'bid'
p8125
(lp8126
(S'156.154.145.25'
p8127
I53
tp8128
a(S'156.154.158.25'
p8129
I53
tp8130
a(S'156.154.144.25'
p8131
I53
tp8132
a(S'156.154.157.25'
p8133
I53
tp8134
a(S'156.154.156.25'
p8135
I53
tp8136
a(S'156.154.159.25'
p8137
I53
tp8138
asS'haus'
p8139
(lp8140
(S'37.209.196.7'
p8141
I53
tp8142
a(S'37.209.194.7'
p8143
I53
tp8144
a(S'37.209.192.7'
p8145
I53
tp8146
a(S'37.209.198.7'
p8147
I53
tp8148
asS'xn--kpry57d'
p8149
(lp8150
(S'211.20.231.11'
p8151
I53
tp8152
a(S'220.229.225.195'
p8153
I53
tp8154
a(S'163.28.1.10'
p8155
I53
tp8156
a(S'202.12.31.141'
p8157
I53
tp8158
a(S'203.119.3.1'
p8159
I53
tp8160
a(S'210.17.9.230'
p8161
I53
tp8162
asS'biz'
p8163
(lp8164
(S'156.154.127.65'
p8165
I53
tp8166
a(S'156.154.126.65'
p8167
I53
tp8168
a(S'156.154.128.65'
p8169
I53
tp8170
a(S'209.173.58.66'
p8171
I53
tp8172
a(S'156.154.124.65'
p8173
I53
tp8174
a(S'156.154.125.65'
p8175
I53
tp8176
asS'desi'
p8177
(lp8178
(S'203.119.88.75'
p8179
I53
tp8180
a(S'203.119.88.76'
p8181
I53
tp8182
a(S'72.0.48.76'
p8183
I53
tp8184
a(S'72.0.48.75'
p8185
I53
tp8186
asS'press'
p8187
(lp8188
(S'185.24.67.34'
p8189
I53
tp8190
a(S'185.24.64.34'
p8191
I53
tp8192
a(S'212.18.251.34'
p8193
I53
tp8194
a(S'194.169.218.34'
p8195
I53
tp8196
asS'world'
p8197
(lp8198
(S'37.209.196.7'
p8199
I53
tp8200
a(S'37.209.194.7'
p8201
I53
tp8202
a(S'37.209.192.7'
p8203
I53
tp8204
a(S'37.209.198.7'
p8205
I53
tp8206
asS'moe'
p8207
(lp8208
(S'156.154.156.114'
p8209
I53
tp8210
a(S'156.154.158.114'
p8211
I53
tp8212
a(S'156.154.145.114'
p8213
I53
tp8214
a(S'156.154.157.114'
p8215
I53
tp8216
a(S'156.154.159.114'
p8217
I53
tp8218
a(S'156.154.144.114'
p8219
I53
tp8220
asS'furniture'
p8221
(lp8222
(S'37.209.196.7'
p8223
I53
tp8224
a(S'37.209.194.7'
p8225
I53
tp8226
a(S'37.209.192.7'
p8227
I53
tp8228
a(S'37.209.198.7'
p8229
I53
tp8230
asS'tatar'
p8231
(lp8232
(S'193.232.142.17'
p8233
I53
tp8234
a(S'194.85.252.62'
p8235
I53
tp8236
a(S'193.232.156.17'
p8237
I53
tp8238
a(S'194.190.124.17'
p8239
I53
tp8240
a(S'193.232.128.6'
p8241
I53
tp8242
asS'gift'
p8243
(lp8244
(S'199.19.1.7'
p8245
I53
tp8246
a(S'185.38.98.7'
p8247
I53
tp8248
a(S'63.243.194.3'
p8249
I53
tp8250
a(S'38.103.2.3'
p8251
I53
tp8252
a(S'199.19.7.7'
p8253
I53
tp8254
a(S'72.52.71.3'
p8255
I53
tp8256
a(S'64.96.25.53'
p8257
I53
tp8258
asS'miami'
p8259
(lp8260
(S'72.0.50.21'
p8261
I53
tp8262
a(S'72.42.114.21'
p8263
I53
tp8264
a(S'70.40.0.21'
p8265
I53
tp8266
a(S'70.40.8.21'
p8267
I53
tp8268
asS'nissan'
p8269
(lp8270
(S'65.22.166.1'
p8271
I53
tp8272
a(S'120.29.254.11'
p8273
I53
tp8274
a(S'65.22.167.1'
p8275
I53
tp8276
a(S'120.29.252.11'
p8277
I53
tp8278
a(S'65.22.165.1'
p8279
I53
tp8280
asS'xn--vermgensberatung-pwb'
p8281
(lp8282
(S'203.119.88.75'
p8283
I53
tp8284
a(S'203.119.88.76'
p8285
I53
tp8286
a(S'72.0.48.76'
p8287
I53
tp8288
a(S'72.0.48.75'
p8289
I53
tp8290
asS'xn--80asehdb'
p8291
(lp8292
(S'195.253.64.12'
p8293
I53
tp8294
a(S'195.253.65.12'
p8295
I53
tp8296
a(S'195.253.64.11'
p8297
I53
tp8298
a(S'195.253.65.11'
p8299
I53
tp8300
asS'schwarz'
p8301
(lp8302
(S'195.253.64.7'
p8303
I53
tp8304
a(S'195.253.64.4'
p8305
I53
tp8306
a(S'89.207.190.19'
p8307
I53
tp8308
a(S'54.75.243.181'
p8309
I53
tp8310
asS'xn--c1avg'
p8311
(lp8312
(S'65.22.184.25'
p8313
I53
tp8314
a(S'65.22.187.25'
p8315
I53
tp8316
a(S'65.22.185.25'
p8317
I53
tp8318
a(S'65.22.186.25'
p8319
I53
tp8320
asS'works'
p8321
(lp8322
(S'37.209.196.7'
p8323
I53
tp8324
a(S'37.209.194.7'
p8325
I53
tp8326
a(S'37.209.192.7'
p8327
I53
tp8328
a(S'37.209.198.7'
p8329
I53
tp8330
asS'page'
p8331
(lp8332
(S'216.239.32.105'
p8333
I53
tp8334
a(S'216.239.38.105'
p8335
I53
tp8336
a(S'216.239.36.105'
p8337
I53
tp8338
a(S'216.239.60.105'
p8339
I53
tp8340
a(S'216.239.34.105'
p8341
I53
tp8342
asS'tm'
p8343
(lp8344
(S'64.251.31.180'
p8345
I53
tp8346
a(S'194.0.1.1'
p8347
I53
tp8348
a(S'49.212.51.85'
p8349
I53
tp8350
a(S'194.0.2.1'
p8351
I53
tp8352
a(S'78.104.145.37'
p8353
I53
tp8354
a(S'91.208.95.130'
p8355
I53
tp8356
a(S'49.212.31.192'
p8357
I53
tp8358
asS'attorney'
p8359
(lp8360
(S'37.209.196.7'
p8361
I53
tp8362
a(S'37.209.194.7'
p8363
I53
tp8364
a(S'37.209.192.7'
p8365
I53
tp8366
a(S'37.209.198.7'
p8367
I53
tp8368
asS'google'
p8369
(lp8370
(S'216.239.32.105'
p8371
I53
tp8372
a(S'216.239.38.105'
p8373
I53
tp8374
a(S'216.239.36.105'
p8375
I53
tp8376
a(S'216.239.60.105'
p8377
I53
tp8378
a(S'216.239.34.105'
p8379
I53
tp8380
asS'apartments'
p8381
(lp8382
(S'37.209.196.7'
p8383
I53
tp8384
a(S'37.209.194.7'
p8385
I53
tp8386
a(S'37.209.192.7'
p8387
I53
tp8388
a(S'37.209.198.7'
p8389
I53
tp8390
asS'madrid'
p8391
(lp8392
(S'195.253.65.11'
p8393
I53
tp8394
a(S'195.253.65.12'
p8395
I53
tp8396
a(S'195.253.64.11'
p8397
I53
tp8398
a(S'195.253.64.12'
p8399
I53
tp8400
asS'villas'
p8401
(lp8402
(S'37.209.196.7'
p8403
I53
tp8404
a(S'37.209.194.7'
p8405
I53
tp8406
a(S'37.209.192.7'
p8407
I53
tp8408
a(S'37.209.198.7'
p8409
I53
tp8410
asS'productions'
p8411
(lp8412
(S'37.209.196.7'
p8413
I53
tp8414
a(S'37.209.194.7'
p8415
I53
tp8416
a(S'37.209.192.7'
p8417
I53
tp8418
a(S'37.209.198.7'
p8419
I53
tp8420
asS'xn--wgbl6a'
p8421
(lp8422
(S'212.77.192.15'
p8423
I53
tp8424
a(S'37.209.194.6'
p8425
I53
tp8426
a(S'212.77.192.10'
p8427
I53
tp8428
a(S'212.77.192.13'
p8429
I53
tp8430
a(S'204.61.216.62'
p8431
I53
tp8432
a(S'178.23.16.104'
p8433
I53
tp8434
a(S'38.103.2.3'
p8435
I53
tp8436
a(S'178.23.17.104'
p8437
I53
tp8438
a(S'193.0.9.51'
p8439
I53
tp8440
a(S'72.52.71.3'
p8441
I53
tp8442
a(S'37.209.192.6'
p8443
I53
tp8444
asS'redstone'
p8445
(lp8446
(S'65.22.134.17'
p8447
I53
tp8448
a(S'65.22.135.17'
p8449
I53
tp8450
a(S'65.22.132.17'
p8451
I53
tp8452
a(S'65.22.133.17'
p8453
I53
tp8454
asS'luxe'
p8455
(lp8456
(S'72.0.50.20'
p8457
I53
tp8458
a(S'72.42.114.20'
p8459
I53
tp8460
a(S'70.40.0.20'
p8461
I53
tp8462
a(S'70.40.8.20'
p8463
I53
tp8464
asS'lotte'
p8465
(lp8466
(S'65.22.166.1'
p8467
I53
tp8468
a(S'120.29.254.11'
p8469
I53
tp8470
a(S'65.22.167.1'
p8471
I53
tp8472
a(S'120.29.252.11'
p8473
I53
tp8474
a(S'65.22.165.1'
p8475
I53
tp8476
asS'ryukyu'
p8477
(lp8478
(S'65.22.166.1'
p8479
I53
tp8480
a(S'120.29.254.11'
p8481
I53
tp8482
a(S'65.22.167.1'
p8483
I53
tp8484
a(S'120.29.252.11'
p8485
I53
tp8486
a(S'65.22.165.1'
p8487
I53
tp8488
asS'jewelry'
p8489
(lp8490
(S'37.209.196.7'
p8491
I53
tp8492
a(S'37.209.194.7'
p8493
I53
tp8494
a(S'37.209.192.7'
p8495
I53
tp8496
a(S'37.209.198.7'
p8497
I53
tp8498
asS'esq'
p8499
(lp8500
(S'216.239.32.105'
p8501
I53
tp8502
a(S'216.239.38.105'
p8503
I53
tp8504
a(S'216.239.36.105'
p8505
I53
tp8506
a(S'216.239.60.105'
p8507
I53
tp8508
a(S'216.239.34.105'
p8509
I53
tp8510
asS'moda'
p8511
(lp8512
(S'37.209.196.7'
p8513
I53
tp8514
a(S'37.209.194.7'
p8515
I53
tp8516
a(S'37.209.192.7'
p8517
I53
tp8518
a(S'37.209.198.7'
p8519
I53
tp8520
asS'cancerresearch'
p8521
(lp8522
(S'37.209.198.9'
p8523
I53
tp8524
a(S'37.209.192.9'
p8525
I53
tp8526
a(S'37.209.194.9'
p8527
I53
tp8528
a(S'37.209.196.9'
p8529
I53
tp8530
asS'lotto'
p8531
(lp8532
(S'65.22.30.25'
p8533
I53
tp8534
a(S'65.22.29.25'
p8535
I53
tp8536
a(S'65.22.31.25'
p8537
I53
tp8538
a(S'65.22.28.25'
p8539
I53
tp8540
asS'vlaanderen'
p8541
(lp8542
(S'194.0.43.1'
p8543
I53
tp8544
a(S'194.0.25.19'
p8545
I53
tp8546
a(S'194.0.37.1'
p8547
I53
tp8548
a(S'194.0.6.1'
p8549
I53
tp8550
a(S'194.0.44.1'
p8551
I53
tp8552
asS'legal'
p8553
(lp8554
(S'37.209.196.7'
p8555
I53
tp8556
a(S'37.209.194.7'
p8557
I53
tp8558
a(S'37.209.192.7'
p8559
I53
tp8560
a(S'37.209.198.7'
p8561
I53
tp8562
asS'singles'
p8563
(lp8564
(S'37.209.196.7'
p8565
I53
tp8566
a(S'37.209.194.7'
p8567
I53
tp8568
a(S'37.209.192.7'
p8569
I53
tp8570
a(S'37.209.198.7'
p8571
I53
tp8572
asS'xn--fzc2c9e2c'
p8573
(lp8574
(S'192.248.8.17'
p8575
I53
tp8576
asS'prof'
p8577
(lp8578
(S'216.239.32.105'
p8579
I53
tp8580
a(S'216.239.38.105'
p8581
I53
tp8582
a(S'216.239.36.105'
p8583
I53
tp8584
a(S'216.239.60.105'
p8585
I53
tp8586
a(S'216.239.34.105'
p8587
I53
tp8588
asS'xn--fiq64b'
p8589
(lp8590
(S'182.131.23.22'
p8591
I53
tp8592
asS'foo'
p8593
(lp8594
(S'216.239.32.105'
p8595
I53
tp8596
a(S'216.239.38.105'
p8597
I53
tp8598
a(S'216.239.36.105'
p8599
I53
tp8600
a(S'216.239.60.105'
p8601
I53
tp8602
a(S'216.239.34.105'
p8603
I53
tp8604
asS'christmas'
p8605
(lp8606
(S'185.38.98.3'
p8607
I53
tp8608
a(S'199.19.1.3'
p8609
I53
tp8610
a(S'199.19.7.3'
p8611
I53
tp8612
a(S'38.103.2.3'
p8613
I53
tp8614
a(S'72.52.71.3'
p8615
I53
tp8616
a(S'64.96.25.53'
p8617
I53
tp8618
a(S'63.243.194.3'
p8619
I53
tp8620
asS'bd'
p8621
(lp8622
(S'203.112.194.231'
p8623
I53
tp8624
a(S'209.58.24.3'
p8625
I53
tp8626
a(S'203.112.194.232'
p8627
I53
tp8628
asS'be'
p8629
(lp8630
(S'194.0.43.1'
p8631
I53
tp8632
a(S'120.29.253.8'
p8633
I53
tp8634
a(S'194.0.37.1'
p8635
I53
tp8636
a(S'194.0.6.1'
p8637
I53
tp8638
a(S'194.0.44.1'
p8639
I53
tp8640
a(S'194.0.1.10'
p8641
I53
tp8642
asS'bf'
p8643
(lp8644
(S'91.203.32.147'
p8645
I53
tp8646
a(S'206.82.130.196'
p8647
I53
tp8648
a(S'66.198.145.99'
p8649
I53
tp8650
a(S'66.198.145.55'
p8651
I53
tp8652
asS'bg'
p8653
(lp8654
(S'193.68.3.232'
p8655
I53
tp8656
a(S'204.152.184.64'
p8657
I53
tp8658
a(S'192.92.129.99'
p8659
I53
tp8660
a(S'193.68.99.99'
p8661
I53
tp8662
a(S'194.0.32.1'
p8663
I53
tp8664
a(S'192.5.4.1'
p8665
I53
tp8666
a(S'193.0.9.61'
p8667
I53
tp8668
asS'epson'
p8669
(lp8670
(S'37.209.198.9'
p8671
I53
tp8672
a(S'37.209.192.9'
p8673
I53
tp8674
a(S'37.209.194.9'
p8675
I53
tp8676
a(S'37.209.196.9'
p8677
I53
tp8678
asS'ba'
p8679
(lp8680
(S'198.6.1.83'
p8681
I53
tp8682
a(S'202.29.151.3'
p8683
I53
tp8684
a(S'193.0.9.60'
p8685
I53
tp8686
a(S'195.130.35.3'
p8687
I53
tp8688
a(S'195.130.35.5'
p8689
I53
tp8690
asS'business'
p8691
(lp8692
(S'37.209.196.7'
p8693
I53
tp8694
a(S'37.209.194.7'
p8695
I53
tp8696
a(S'37.209.192.7'
p8697
I53
tp8698
a(S'37.209.198.7'
p8699
I53
tp8700
asS'xn--90ais'
p8701
(lp8702
(S'178.124.133.53'
p8703
I53
tp8704
a(S'46.165.217.94'
p8705
I53
tp8706
a(S'195.209.35.70'
p8707
I53
tp8708
a(S'108.59.8.66'
p8709
I53
tp8710
a(S'93.125.30.44'
p8711
I53
tp8712
a(S'62.212.73.101'
p8713
I53
tp8714
a(S'103.23.93.36'
p8715
I53
tp8716
asS'bm'
p8717
(lp8718
(S'199.172.192.2'
p8719
I53
tp8720
a(S'69.17.194.1'
p8721
I53
tp8722
a(S'198.207.23.50'
p8723
I53
tp8724
a(S'137.39.1.3'
p8725
I53
tp8726
a(S'207.228.134.10'
p8727
I53
tp8728
a(S'192.36.125.2'
p8729
I53
tp8730
a(S'198.6.1.82'
p8731
I53
tp8732
a(S'206.53.190.202'
p8733
I53
tp8734
asS'bn'
p8735
(lp8736
(S'202.93.214.163'
p8737
I53
tp8738
a(S'61.6.254.166'
p8739
I53
tp8740
a(S'202.12.31.141'
p8741
I53
tp8742
a(S'204.61.216.87'
p8743
I53
tp8744
asS'bo'
p8745
(lp8746
(S'166.114.1.40'
p8747
I53
tp8748
a(S'200.160.0.5'
p8749
I53
tp8750
a(S'204.61.216.48'
p8751
I53
tp8752
asS'bh'
p8753
(lp8754
(S'193.188.97.193'
p8755
I53
tp8756
a(S'193.188.97.212'
p8757
I53
tp8758
a(S'193.188.97.209'
p8759
I53
tp8760
a(S'193.188.97.197'
p8761
I53
tp8762
asS'bi'
p8763
(lp8764
(S'196.2.12.205'
p8765
I53
tp8766
a(S'196.216.168.23'
p8767
I53
tp8768
a(S'204.61.216.61'
p8769
I53
tp8770
a(S'196.2.8.205'
p8771
I53
tp8772
a(S'128.112.129.15'
p8773
I53
tp8774
a(S'193.0.9.62'
p8775
I53
tp8776
asS'bj'
p8777
(lp8778
(S'81.91.225.1'
p8779
I53
tp8780
a(S'193.0.9.63'
p8781
I53
tp8782
a(S'81.91.225.18'
p8783
I53
tp8784
a(S'196.216.168.33'
p8785
I53
tp8786
a(S'194.51.3.49'
p8787
I53
tp8788
asS'bt'
p8789
(lp8790
(S'198.6.1.65'
p8791
I53
tp8792
a(S'202.144.128.210'
p8793
I53
tp8794
a(S'156.106.192.121'
p8795
I53
tp8796
a(S'204.61.216.17'
p8797
I53
tp8798
a(S'202.144.128.200'
p8799
I53
tp8800
a(S'198.6.1.182'
p8801
I53
tp8802
a(S'193.0.9.65'
p8803
I53
tp8804
asS'discount'
p8805
(lp8806
(S'37.209.196.7'
p8807
I53
tp8808
a(S'37.209.194.7'
p8809
I53
tp8810
a(S'37.209.192.7'
p8811
I53
tp8812
a(S'37.209.198.7'
p8813
I53
tp8814
asS'bv'
p8815
(lp8816
(S'128.39.2.22'
p8817
I53
tp8818
a(S'193.10.252.19'
p8819
I53
tp8820
a(S'158.38.0.181'
p8821
I53
tp8822
asS'bw'
p8823
(lp8824
(S'168.167.98.226'
p8825
I53
tp8826
a(S'168.167.168.34'
p8827
I53
tp8828
a(S'196.216.168.72'
p8829
I53
tp8830
a(S'204.61.216.70'
p8831
I53
tp8832
a(S'168.167.98.218'
p8833
I53
tp8834
asS'diet'
p8835
(lp8836
(S'199.19.1.5'
p8837
I53
tp8838
a(S'185.38.98.5'
p8839
I53
tp8840
a(S'63.243.194.3'
p8841
I53
tp8842
a(S'199.19.7.5'
p8843
I53
tp8844
a(S'38.103.2.3'
p8845
I53
tp8846
a(S'72.52.71.3'
p8847
I53
tp8848
a(S'64.96.25.53'
p8849
I53
tp8850
asS'br'
p8851
(lp8852
(S'200.219.159.10'
p8853
I53
tp8854
a(S'200.229.248.10'
p8855
I53
tp8856
a(S'200.192.233.10'
p8857
I53
tp8858
a(S'200.219.154.10'
p8859
I53
tp8860
a(S'200.160.0.10'
p8861
I53
tp8862
a(S'200.189.41.10'
p8863
I53
tp8864
asS'bs'
p8865
(lp8866
(S'194.0.1.36'
p8867
I53
tp8868
a(S'204.61.216.68'
p8869
I53
tp8870
a(S'204.61.216.4'
p8871
I53
tp8872
a(S'136.145.1.4'
p8873
I53
tp8874
a(S'206.48.3.168'
p8875
I53
tp8876
asS'post'
p8877
(lp8878
(S'65.22.2.1'
p8879
I53
tp8880
a(S'65.22.3.1'
p8881
I53
tp8882
a(S'65.22.5.1'
p8883
I53
tp8884
a(S'65.22.0.1'
p8885
I53
tp8886
a(S'65.22.1.1'
p8887
I53
tp8888
a(S'65.22.4.1'
p8889
I53
tp8890
asS'bayern'
p8891
(lp8892
(S'72.42.114.13'
p8893
I53
tp8894
a(S'72.0.50.13'
p8895
I53
tp8896
asS'loans'
p8897
(lp8898
(S'37.209.196.7'
p8899
I53
tp8900
a(S'37.209.194.7'
p8901
I53
tp8902
a(S'37.209.192.7'
p8903
I53
tp8904
a(S'37.209.198.7'
p8905
I53
tp8906
asS'by'
p8907
(lp8908
(S'178.124.133.53'
p8909
I53
tp8910
a(S'46.165.217.94'
p8911
I53
tp8912
a(S'195.209.35.70'
p8913
I53
tp8914
a(S'108.59.8.66'
p8915
I53
tp8916
a(S'93.125.30.44'
p8917
I53
tp8918
a(S'62.212.73.101'
p8919
I53
tp8920
a(S'103.23.93.36'
p8921
I53
tp8922
asS'bz'
p8923
(lp8924
(S'199.249.124.1'
p8925
I53
tp8926
a(S'199.254.60.1'
p8927
I53
tp8928
a(S'199.254.62.1'
p8929
I53
tp8930
a(S'199.249.116.1'
p8931
I53
tp8932
a(S'199.254.59.1'
p8933
I53
tp8934
a(S'199.254.61.1'
p8935
I53
tp8936
asS'faith'
p8937
(lp8938
(S'156.154.159.54'
p8939
I53
tp8940
a(S'156.154.144.54'
p8941
I53
tp8942
a(S'156.154.157.54'
p8943
I53
tp8944
a(S'156.154.145.54'
p8945
I53
tp8946
a(S'156.154.156.54'
p8947
I53
tp8948
a(S'156.154.158.54'
p8949
I53
tp8950
asS'om'
p8951
(lp8952
(S'185.27.91.69'
p8953
I53
tp8954
a(S'37.209.194.6'
p8955
I53
tp8956
a(S'37.209.196.6'
p8957
I53
tp8958
a(S'37.209.192.6'
p8959
I53
tp8960
a(S'185.27.90.101'
p8961
I53
tp8962
a(S'37.209.198.6'
p8963
I53
tp8964
asS'sarl'
p8965
(lp8966
(S'37.209.196.7'
p8967
I53
tp8968
a(S'37.209.194.7'
p8969
I53
tp8970
a(S'37.209.192.7'
p8971
I53
tp8972
a(S'37.209.198.7'
p8973
I53
tp8974
asS'tui'
p8975
(lp8976
(S'203.119.88.75'
p8977
I53
tp8978
a(S'203.119.88.76'
p8979
I53
tp8980
a(S'72.0.48.76'
p8981
I53
tp8982
a(S'72.0.48.75'
p8983
I53
tp8984
asS'xn--mgbaam7a8h'
p8985
(lp8986
(S'199.4.137.1'
p8987
I53
tp8988
a(S'79.98.121.73'
p8989
I53
tp8990
a(S'79.98.120.73'
p8991
I53
tp8992
a(S'192.5.4.1'
p8993
I53
tp8994
asS'dclk'
p8995
(lp8996
(S'216.239.32.105'
p8997
I53
tp8998
a(S'216.239.38.105'
p8999
I53
tp9000
a(S'216.239.36.105'
p9001
I53
tp9002
a(S'216.239.60.105'
p9003
I53
tp9004
a(S'216.239.34.105'
p9005
I53
tp9006
asS'melbourne'
p9007
(lp9008
(S'37.209.198.10'
p9009
I53
tp9010
a(S'37.209.196.10'
p9011
I53
tp9012
a(S'37.209.194.10'
p9013
I53
tp9014
a(S'37.209.192.10'
p9015
I53
tp9016
asS'holdings'
p9017
(lp9018
(S'37.209.196.7'
p9019
I53
tp9020
a(S'37.209.194.7'
p9021
I53
tp9022
a(S'37.209.192.7'
p9023
I53
tp9024
a(S'37.209.198.7'
p9025
I53
tp9026
asS'rodeo'
p9027
(lp9028
(S'70.40.8.3'
p9029
I53
tp9030
a(S'72.42.114.3'
p9031
I53
tp9032
a(S'72.0.50.3'
p9033
I53
tp9034
a(S'70.40.0.3'
p9035
I53
tp9036
asS'plus'
p9037
(lp9038
(S'37.209.196.7'
p9039
I53
tp9040
a(S'37.209.194.7'
p9041
I53
tp9042
a(S'37.209.192.7'
p9043
I53
tp9044
a(S'37.209.198.7'
p9045
I53
tp9046
asS'cartier'
p9047
(lp9048
(S'156.154.144.34'
p9049
I53
tp9050
a(S'156.154.158.34'
p9051
I53
tp9052
a(S'156.154.145.34'
p9053
I53
tp9054
a(S'156.154.156.34'
p9055
I53
tp9056
a(S'156.154.157.34'
p9057
I53
tp9058
a(S'156.154.159.34'
p9059
I53
tp9060
asS'marriott'
p9061
(lp9062
(S'65.22.237.9'
p9063
I53
tp9064
a(S'65.22.238.9'
p9065
I53
tp9066
a(S'65.22.236.9'
p9067
I53
tp9068
a(S'65.22.239.9'
p9069
I53
tp9070
asS'krd'
p9071
(lp9072
(S'37.209.198.10'
p9073
I53
tp9074
a(S'37.209.196.10'
p9075
I53
tp9076
a(S'37.209.194.10'
p9077
I53
tp9078
a(S'37.209.192.10'
p9079
I53
tp9080
asS'software'
p9081
(lp9082
(S'37.209.196.7'
p9083
I53
tp9084
a(S'37.209.194.7'
p9085
I53
tp9086
a(S'37.209.192.7'
p9087
I53
tp9088
a(S'37.209.198.7'
p9089
I53
tp9090
asS'repair'
p9091
(lp9092
(S'37.209.196.7'
p9093
I53
tp9094
a(S'37.209.194.7'
p9095
I53
tp9096
a(S'37.209.192.7'
p9097
I53
tp9098
a(S'37.209.198.7'
p9099
I53
tp9100
asS'consulting'
p9101
(lp9102
(S'37.209.196.7'
p9103
I53
tp9104
a(S'37.209.194.7'
p9105
I53
tp9106
a(S'37.209.192.7'
p9107
I53
tp9108
a(S'37.209.198.7'
p9109
I53
tp9110
asS'xn--xhq521b'
p9111
(lp9112
(S'42.83.131.1'
p9113
I53
tp9114
a(S'42.83.134.1'
p9115
I53
tp9116
a(S'42.83.133.1'
p9117
I53
tp9118
a(S'42.83.130.1'
p9119
I53
tp9120
a(S'42.83.132.1'
p9121
I53
tp9122
asS'monash'
p9123
(lp9124
(S'37.209.198.9'
p9125
I53
tp9126
a(S'37.209.192.9'
p9127
I53
tp9128
a(S'37.209.194.9'
p9129
I53
tp9130
a(S'37.209.196.9'
p9131
I53
tp9132
asS'xn--mgbbh1a71e'
p9133
(lp9134
(S'199.254.59.1'
p9135
I53
tp9136
a(S'199.254.62.1'
p9137
I53
tp9138
a(S'125.19.40.90'
p9139
I53
tp9140
a(S'199.254.60.1'
p9141
I53
tp9142
a(S'199.249.125.1'
p9143
I53
tp9144
a(S'115.249.164.142'
p9145
I53
tp9146
a(S'199.254.61.1'
p9147
I53
tp9148
a(S'199.249.117.1'
p9149
I53
tp9150
asS'soy'
p9151
(lp9152
(S'216.239.32.105'
p9153
I53
tp9154
a(S'216.239.38.105'
p9155
I53
tp9156
a(S'216.239.36.105'
p9157
I53
tp9158
a(S'216.239.60.105'
p9159
I53
tp9160
a(S'216.239.34.105'
p9161
I53
tp9162
asS'amsterdam'
p9163
(lp9164
(S'193.176.144.14'
p9165
I53
tp9166
a(S'194.171.17.14'
p9167
I53
tp9168
a(S'194.0.28.4'
p9169
I53
tp9170
a(S'95.142.99.216'
p9171
I53
tp9172
a(S'213.154.241.83'
p9173
I53
tp9174
asS'xn--j6w193g'
p9175
(lp9176
(S'202.12.28.140'
p9177
I53
tp9178
a(S'210.201.138.58'
p9179
I53
tp9180
a(S'203.119.2.218'
p9181
I53
tp9182
a(S'202.45.188.39'
p9183
I53
tp9184
a(S'194.146.106.70'
p9185
I53
tp9186
a(S'137.189.6.21'
p9187
I53
tp9188
a(S'204.61.216.46'
p9189
I53
tp9190
a(S'203.119.87.19'
p9191
I53
tp9192
a(S'203.119.87.218'
p9193
I53
tp9194
asS'xn--xkc2al3hye2a'
p9195
(lp9196
(S'194.0.1.27'
p9197
I53
tp9198
a(S'123.231.6.18'
p9199
I53
tp9200
a(S'192.248.8.17'
p9201
I53
tp9202
a(S'123.231.18.49'
p9203
I53
tp9204
a(S'192.248.1.162'
p9205
I53
tp9206
asS'viajes'
p9207
(lp9208
(S'37.209.196.7'
p9209
I53
tp9210
a(S'37.209.194.7'
p9211
I53
tp9212
a(S'37.209.192.7'
p9213
I53
tp9214
a(S'37.209.198.7'
p9215
I53
tp9216
asS'museum'
p9217
(lp9218
(S'195.253.64.4'
p9219
I53
tp9220
a(S'199.4.138.53'
p9221
I53
tp9222
a(S'91.194.60.91'
p9223
I53
tp9224
a(S'195.253.6.62'
p9225
I53
tp9226
a(S'192.5.4.1'
p9227
I53
tp9228
asS'exposed'
p9229
(lp9230
(S'37.209.196.7'
p9231
I53
tp9232
a(S'37.209.194.7'
p9233
I53
tp9234
a(S'37.209.192.7'
p9235
I53
tp9236
a(S'37.209.198.7'
p9237
I53
tp9238
asS'accountant'
p9239
(lp9240
(S'156.154.159.195'
p9241
I53
tp9242
a(S'156.154.157.195'
p9243
I53
tp9244
a(S'156.154.145.195'
p9245
I53
tp9246
a(S'156.154.144.195'
p9247
I53
tp9248
a(S'156.154.156.195'
p9249
I53
tp9250
a(S'156.154.158.195'
p9251
I53
tp9252
asS'pa'
p9253
(lp9254
(S'200.107.82.100'
p9255
I53
tp9256
a(S'200.160.0.5'
p9257
I53
tp9258
a(S'168.77.8.7'
p9259
I53
tp9260
a(S'168.77.8.4'
p9261
I53
tp9262
a(S'168.77.8.2'
p9263
I53
tp9264
a(S'192.5.4.1'
p9265
I53
tp9266
a(S'200.1.123.14'
p9267
I53
tp9268
asS'rsvp'
p9269
(lp9270
(S'216.239.32.105'
p9271
I53
tp9272
a(S'216.239.38.105'
p9273
I53
tp9274
a(S'216.239.36.105'
p9275
I53
tp9276
a(S'216.239.60.105'
p9277
I53
tp9278
a(S'216.239.34.105'
p9279
I53
tp9280
asS'xn--rhqv96g'
p9281
(lp9282
(S'156.154.159.191'
p9283
I53
tp9284
a(S'156.154.145.191'
p9285
I53
tp9286
a(S'156.154.144.191'
p9287
I53
tp9288
a(S'156.154.156.191'
p9289
I53
tp9290
a(S'156.154.158.191'
p9291
I53
tp9292
a(S'156.154.157.191'
p9293
I53
tp9294
asS'fish'
p9295
(lp9296
(S'37.209.196.7'
p9297
I53
tp9298
a(S'37.209.194.7'
p9299
I53
tp9300
a(S'37.209.192.7'
p9301
I53
tp9302
a(S'37.209.198.7'
p9303
I53
tp9304
asS'xn--hxt814e'
p9305
(lp9306
(S'111.12.148.111'
p9307
I53
tp9308
a(S'182.131.23.22'
p9309
I53
tp9310
asS'cricket'
p9311
(lp9312
(S'156.154.159.220'
p9313
I53
tp9314
a(S'156.154.157.220'
p9315
I53
tp9316
a(S'156.154.144.220'
p9317
I53
tp9318
a(S'156.154.158.220'
p9319
I53
tp9320
a(S'156.154.145.220'
p9321
I53
tp9322
a(S'156.154.156.220'
p9323
I53
tp9324
asS'shriram'
p9325
(lp9326
(S'65.22.181.41'
p9327
I53
tp9328
a(S'65.22.183.41'
p9329
I53
tp9330
a(S'65.22.180.41'
p9331
I53
tp9332
a(S'65.22.182.41'
p9333
I53
tp9334
asS'hr'
p9335
(lp9336
(S'204.61.216.90'
p9337
I53
tp9338
a(S'161.53.160.100'
p9339
I53
tp9340
a(S'192.5.4.1'
p9341
I53
tp9342
asS'xerox'
p9343
(lp9344
(S'192.26.92.34'
p9345
I53
tp9346
a(S'192.42.93.34'
p9347
I53
tp9348
a(S'192.31.80.34'
p9349
I53
tp9350
a(S'192.41.162.34'
p9351
I53
tp9352
a(S'192.35.51.34'
p9353
I53
tp9354
a(S'192.54.112.34'
p9355
I53
tp9356
a(S'192.5.6.34'
p9357
I53
tp9358
asS'ht'
p9359
(lp9360
(S'204.61.216.38'
p9361
I53
tp9362
a(S'192.134.0.49'
p9363
I53
tp9364
a(S'128.112.129.15'
p9365
I53
tp9366
a(S'132.207.144.2'
p9367
I53
tp9368
asS'hu'
p9369
(lp9370
(S'195.70.35.250'
p9371
I53
tp9372
a(S'193.239.149.161'
p9373
I53
tp9374
a(S'194.0.1.12'
p9375
I53
tp9376
a(S'194.0.25.11'
p9377
I53
tp9378
a(S'192.93.0.4'
p9379
I53
tp9380
a(S'193.6.16.1'
p9381
I53
tp9382
a(S'193.239.148.1'
p9383
I53
tp9384
asS'delivery'
p9385
(lp9386
(S'37.209.196.7'
p9387
I53
tp9388
a(S'37.209.194.7'
p9389
I53
tp9390
a(S'37.209.192.7'
p9391
I53
tp9392
a(S'37.209.198.7'
p9393
I53
tp9394
asS'hk'
p9395
(lp9396
(S'202.12.28.140'
p9397
I53
tp9398
a(S'210.201.138.58'
p9399
I53
tp9400
a(S'203.119.2.218'
p9401
I53
tp9402
a(S'202.45.188.39'
p9403
I53
tp9404
a(S'194.146.106.70'
p9405
I53
tp9406
a(S'137.189.6.21'
p9407
I53
tp9408
a(S'204.61.216.46'
p9409
I53
tp9410
a(S'203.119.87.19'
p9411
I53
tp9412
a(S'203.119.87.218'
p9413
I53
tp9414
asS'construction'
p9415
(lp9416
(S'37.209.196.7'
p9417
I53
tp9418
a(S'37.209.194.7'
p9419
I53
tp9420
a(S'37.209.192.7'
p9421
I53
tp9422
a(S'37.209.198.7'
p9423
I53
tp9424
asS'hn'
p9425
(lp9426
(S'192.5.4.1'
p9427
I53
tp9428
a(S'200.33.111.1'
p9429
I53
tp9430
a(S'204.61.216.64'
p9431
I53
tp9432
asS'alsace'
p9433
(lp9434
(S'194.0.36.1'
p9435
I53
tp9436
a(S'194.146.106.46'
p9437
I53
tp9438
a(S'194.0.9.1'
p9439
I53
tp9440
asS'solar'
p9441
(lp9442
(S'37.209.196.7'
p9443
I53
tp9444
a(S'37.209.194.7'
p9445
I53
tp9446
a(S'37.209.192.7'
p9447
I53
tp9448
a(S'37.209.198.7'
p9449
I53
tp9450
asS'hm'
p9451
(lp9452
(S'208.70.79.25'
p9453
I53
tp9454
a(S'208.70.79.24'
p9455
I53
tp9456
a(S'202.169.96.24'
p9457
I53
tp9458
asS'kg'
p9459
(lp9460
(S'193.0.9.84'
p9461
I53
tp9462
a(S'195.38.160.36'
p9463
I53
tp9464
asS'xn--j1amh'
p9465
(lp9466
(S'195.123.1.7'
p9467
I53
tp9468
a(S'173.208.218.43'
p9469
I53
tp9470
a(S'193.110.163.134'
p9471
I53
tp9472
a(S'37.187.75.31'
p9473
I53
tp9474
a(S'212.1.66.247'
p9475
I53
tp9476
asS'eat'
p9477
(lp9478
(S'216.239.32.105'
p9479
I53
tp9480
a(S'216.239.38.105'
p9481
I53
tp9482
a(S'216.239.36.105'
p9483
I53
tp9484
a(S'216.239.60.105'
p9485
I53
tp9486
a(S'216.239.34.105'
p9487
I53
tp9488
asS'info'
p9489
(lp9490
(S'199.249.121.1'
p9491
I53
tp9492
a(S'199.254.48.1'
p9493
I53
tp9494
a(S'199.254.50.1'
p9495
I53
tp9496
a(S'199.254.49.1'
p9497
I53
tp9498
a(S'199.249.113.1'
p9499
I53
tp9500
a(S'199.254.31.1'
p9501
I53
tp9502
asS'uy'
p9503
(lp9504
(S'200.33.111.1'
p9505
I53
tp9506
a(S'200.160.0.5'
p9507
I53
tp9508
a(S'192.5.4.1'
p9509
I53
tp9510
a(S'193.0.9.122'
p9511
I53
tp9512
a(S'164.73.128.70'
p9513
I53
tp9514
a(S'164.73.128.5'
p9515
I53
tp9516
asS'uz'
p9517
(lp9518
(S'87.139.105.60'
p9519
I53
tp9520
a(S'91.212.89.8'
p9521
I53
tp9522
a(S'81.95.224.158'
p9523
I53
tp9524
a(S'217.12.81.129'
p9525
I53
tp9526
a(S'195.158.1.22'
p9527
I53
tp9528
a(S'83.69.129.4'
p9529
I53
tp9530
a(S'54.200.69.96'
p9531
I53
tp9532
asS'video'
p9533
(lp9534
(S'37.209.196.7'
p9535
I53
tp9536
a(S'37.209.194.7'
p9537
I53
tp9538
a(S'37.209.192.7'
p9539
I53
tp9540
a(S'37.209.198.7'
p9541
I53
tp9542
asS'samsung'
p9543
(lp9544
(S'202.31.190.1'
p9545
I53
tp9546
a(S'202.30.124.100'
p9547
I53
tp9548
asS'hosting'
p9549
(lp9550
(S'72.52.71.3'
p9551
I53
tp9552
a(S'63.243.194.3'
p9553
I53
tp9554
a(S'38.103.2.3'
p9555
I53
tp9556
a(S'64.96.25.53'
p9557
I53
tp9558
asS'us'
p9559
(lp9560
(S'156.154.127.70'
p9561
I53
tp9562
a(S'156.154.126.70'
p9563
I53
tp9564
a(S'156.154.128.70'
p9565
I53
tp9566
a(S'209.173.58.70'
p9567
I53
tp9568
a(S'156.154.125.70'
p9569
I53
tp9570
a(S'156.154.124.70'
p9571
I53
tp9572
asS'xn--p1acf'
p9573
(lp9574
(S'72.0.49.2'
p9575
I53
tp9576
a(S'199.19.5.21'
p9577
I53
tp9578
a(S'72.42.113.2'
p9579
I53
tp9580
a(S'199.19.6.21'
p9581
I53
tp9582
asS'mtn'
p9583
(lp9584
(S'37.209.198.9'
p9585
I53
tp9586
a(S'37.209.192.9'
p9587
I53
tp9588
a(S'37.209.194.9'
p9589
I53
tp9590
a(S'37.209.196.9'
p9591
I53
tp9592
asS'uk'
p9593
(lp9594
(S'156.154.103.3'
p9595
I53
tp9596
a(S'156.154.102.3'
p9597
I53
tp9598
a(S'195.66.240.130'
p9599
I53
tp9600
a(S'217.79.164.131'
p9601
I53
tp9602
a(S'213.246.167.131'
p9603
I53
tp9604
a(S'194.83.244.131'
p9605
I53
tp9606
a(S'156.154.101.3'
p9607
I53
tp9608
a(S'156.154.100.3'
p9609
I53
tp9610
a(S'213.248.254.130'
p9611
I53
tp9612
a(S'212.121.40.130'
p9613
I53
tp9614
asS'ug'
p9615
(lp9616
(S'204.61.216.60'
p9617
I53
tp9618
a(S'193.0.9.52'
p9619
I53
tp9620
a(S'212.88.97.132'
p9621
I53
tp9622
a(S'199.4.138.53'
p9623
I53
tp9624
a(S'196.216.168.42'
p9625
I53
tp9626
asS'builders'
p9627
(lp9628
(S'37.209.196.7'
p9629
I53
tp9630
a(S'37.209.194.7'
p9631
I53
tp9632
a(S'37.209.192.7'
p9633
I53
tp9634
a(S'37.209.198.7'
p9635
I53
tp9636
asS'irish'
p9637
(lp9638
(S'65.22.196.17'
p9639
I53
tp9640
a(S'65.22.197.17'
p9641
I53
tp9642
a(S'65.22.198.17'
p9643
I53
tp9644
a(S'65.22.199.17'
p9645
I53
tp9646
asS'ac'
p9647
(lp9648
(S'49.212.31.192'
p9649
I53
tp9650
a(S'49.212.51.85'
p9651
I53
tp9652
a(S'64.251.31.177'
p9653
I53
tp9654
a(S'78.104.145.37'
p9655
I53
tp9656
a(S'91.208.95.130'
p9657
I53
tp9658
a(S'194.0.2.1'
p9659
I53
tp9660
a(S'194.0.1.1'
p9661
I53
tp9662
asS'kh'
p9663
(lp9664
(S'203.189.128.1'
p9665
I53
tp9666
a(S'193.0.12.37'
p9667
I53
tp9668
asS'ae'
p9669
(lp9670
(S'202.12.28.140'
p9671
I53
tp9672
a(S'199.4.137.1'
p9673
I53
tp9674
a(S'192.5.4.1'
p9675
I53
tp9676
a(S'79.98.120.73'
p9677
I53
tp9678
a(S'79.98.121.73'
p9679
I53
tp9680
a(S'193.0.9.54'
p9681
I53
tp9682
asS'ad'
p9683
(lp9684
(S'194.158.74.9'
p9685
I53
tp9686
a(S'204.152.184.64'
p9687
I53
tp9688
a(S'194.158.74.10'
p9689
I53
tp9690
a(S'193.0.9.53'
p9691
I53
tp9692
a(S'194.69.254.15'
p9693
I53
tp9694
a(S'192.134.0.49'
p9695
I53
tp9696
asS'ag'
p9697
(lp9698
(S'199.249.124.1'
p9699
I53
tp9700
a(S'199.254.60.1'
p9701
I53
tp9702
a(S'199.254.62.1'
p9703
I53
tp9704
a(S'199.249.116.1'
p9705
I53
tp9706
a(S'199.254.59.1'
p9707
I53
tp9708
a(S'199.254.61.1'
p9709
I53
tp9710
asS'af'
p9711
(lp9712
(S'204.61.216.13'
p9713
I53
tp9714
a(S'199.19.5.1'
p9715
I53
tp9716
a(S'199.19.6.1'
p9717
I53
tp9718
asS'ai'
p9719
(lp9720
(S'209.59.119.1'
p9721
I53
tp9722
a(S'209.68.1.11'
p9723
I53
tp9724
a(S'108.166.113.245'
p9725
I53
tp9726
asS'am'
p9727
(lp9728
(S'204.61.216.96'
p9729
I53
tp9730
a(S'195.43.74.53'
p9731
I53
tp9732
a(S'147.28.0.39'
p9733
I53
tp9734
a(S'194.0.1.26'
p9735
I53
tp9736
a(S'193.0.9.57'
p9737
I53
tp9738
a(S'192.5.4.1'
p9739
I53
tp9740
a(S'77.72.229.254'
p9741
I53
tp9742
asS'al'
p9743
(lp9744
(S'202.29.151.3'
p9745
I53
tp9746
a(S'194.119.192.8'
p9747
I53
tp9748
a(S'193.0.9.56'
p9749
I53
tp9750
a(S'147.28.0.39'
p9751
I53
tp9752
a(S'194.1.149.230'
p9753
I53
tp9754
asS'ao'
p9755
(lp9756
(S'138.246.255.249'
p9757
I53
tp9758
a(S'193.136.7.17'
p9759
I53
tp9760
a(S'197.149.149.11'
p9761
I53
tp9762
a(S'198.6.1.82'
p9763
I53
tp9764
a(S'193.136.2.228'
p9765
I53
tp9766
a(S'204.152.184.64'
p9767
I53
tp9768
asS'an'
p9769
(lp9770
(S'65.208.122.63'
p9771
I53
tp9772
a(S'65.208.122.36'
p9773
I53
tp9774
a(S'193.63.94.20'
p9775
I53
tp9776
a(S'200.26.199.102'
p9777
I53
tp9778
a(S'128.86.1.20'
p9779
I53
tp9780
a(S'200.26.199.99'
p9781
I53
tp9782
a(S'65.174.238.100'
p9783
I53
tp9784
a(S'193.0.9.58'
p9785
I53
tp9786
asS'aq'
p9787
(lp9788
(S'203.119.56.132'
p9789
I53
tp9790
a(S'202.46.190.131'
p9791
I53
tp9792
a(S'77.72.229.254'
p9793
I53
tp9794
a(S'192.5.4.1'
p9795
I53
tp9796
asS'mini'
p9797
(lp9798
(S'203.119.88.75'
p9799
I53
tp9800
a(S'203.119.88.76'
p9801
I53
tp9802
a(S'72.0.48.76'
p9803
I53
tp9804
a(S'72.0.48.75'
p9805
I53
tp9806
asS'as'
p9807
(lp9808
(S'199.7.66.1'
p9809
I53
tp9810
a(S'199.7.67.1'
p9811
I53
tp9812
a(S'204.74.113.1'
p9813
I53
tp9814
a(S'204.74.112.1'
p9815
I53
tp9816
a(S'198.133.199.11'
p9817
I53
tp9818
a(S'192.100.59.11'
p9819
I53
tp9820
a(S'68.178.129.149'
p9821
I53
tp9822
asS'associates'
p9823
(lp9824
(S'37.209.196.7'
p9825
I53
tp9826
a(S'37.209.194.7'
p9827
I53
tp9828
a(S'37.209.192.7'
p9829
I53
tp9830
a(S'37.209.198.7'
p9831
I53
tp9832
asS'au'
p9833
(lp9834
(S'37.209.194.5'
p9835
I53
tp9836
a(S'211.29.133.32'
p9837
I53
tp9838
a(S'58.65.253.73'
p9839
I53
tp9840
a(S'37.209.196.5'
p9841
I53
tp9842
a(S'202.12.31.141'
p9843
I53
tp9844
a(S'37.209.192.5'
p9845
I53
tp9846
a(S'58.65.254.73'
p9847
I53
tp9848
a(S'37.209.198.5'
p9849
I53
tp9850
asS'at'
p9851
(lp9852
(S'81.91.161.98'
p9853
I53
tp9854
a(S'194.146.106.50'
p9855
I53
tp9856
a(S'194.0.10.100'
p9857
I53
tp9858
a(S'192.92.125.2'
p9859
I53
tp9860
a(S'78.104.144.2'
p9861
I53
tp9862
a(S'194.0.25.10'
p9863
I53
tp9864
a(S'195.66.241.82'
p9865
I53
tp9866
a(S'81.91.173.130'
p9867
I53
tp9868
asS'chat'
p9869
(lp9870
(S'37.209.196.7'
p9871
I53
tp9872
a(S'37.209.194.7'
p9873
I53
tp9874
a(S'37.209.192.7'
p9875
I53
tp9876
a(S'37.209.198.7'
p9877
I53
tp9878
asS'ink'
p9879
(lp9880
(S'194.0.2.2'
p9881
I53
tp9882
a(S'194.0.1.45'
p9883
I53
tp9884
a(S'194.169.218.41'
p9885
I53
tp9886
a(S'185.24.64.41'
p9887
I53
tp9888
asS'ax'
p9889
(lp9890
(S'82.199.186.130'
p9891
I53
tp9892
a(S'194.112.0.5'
p9893
I53
tp9894
a(S'194.112.0.1'
p9895
I53
tp9896
asS'az'
p9897
(lp9898
(S'195.47.253.13'
p9899
I53
tp9900
a(S'194.87.0.9'
p9901
I53
tp9902
a(S'194.87.0.8'
p9903
I53
tp9904
a(S'147.28.0.39'
p9905
I53
tp9906
asS'film'
p9907
(lp9908
(S'37.209.198.10'
p9909
I53
tp9910
a(S'37.209.196.10'
p9911
I53
tp9912
a(S'37.209.194.10'
p9913
I53
tp9914
a(S'37.209.192.10'
p9915
I53
tp9916
asS'xn--55qx5d'
p9917
(lp9918
(S'125.208.43.1'
p9919
I53
tp9920
a(S'125.208.41.1'
p9921
I53
tp9922
a(S'125.208.44.1'
p9923
I53
tp9924
a(S'125.208.42.1'
p9925
I53
tp9926
a(S'125.208.40.1'
p9927
I53
tp9928
asS'ni'
p9929
(lp9930
(S'163.178.8.2'
p9931
I53
tp9932
a(S'200.62.64.1'
p9933
I53
tp9934
a(S'137.39.1.3'
p9935
I53
tp9936
a(S'165.98.1.2'
p9937
I53
tp9938
a(S'200.85.160.2'
p9939
I53
tp9940
a(S'200.9.190.130'
p9941
I53
tp9942
a(S'200.9.187.2'
p9943
I53
tp9944
asS'codes'
p9945
(lp9946
(S'37.209.196.7'
p9947
I53
tp9948
a(S'37.209.194.7'
p9949
I53
tp9950
a(S'37.209.192.7'
p9951
I53
tp9952
a(S'37.209.198.7'
p9953
I53
tp9954
asS'nl'
p9955
(lp9956
(S'193.176.144.5'
p9957
I53
tp9958
a(S'194.171.17.10'
p9959
I53
tp9960
a(S'213.154.241.85'
p9961
I53
tp9962
a(S'194.146.106.42'
p9963
I53
tp9964
a(S'194.0.28.53'
p9965
I53
tp9966
a(S'192.5.4.1'
p9967
I53
tp9968
a(S'192.93.0.4'
p9969
I53
tp9970
a(S'95.142.99.212'
p9971
I53
tp9972
asS'no'
p9973
(lp9974
(S'128.39.8.40'
p9975
I53
tp9976
a(S'156.154.101.12'
p9977
I53
tp9978
a(S'193.75.4.22'
p9979
I53
tp9980
a(S'158.38.8.133'
p9981
I53
tp9982
a(S'194.146.106.6'
p9983
I53
tp9984
a(S'156.154.100.12'
p9985
I53
tp9986
asS'na'
p9987
(lp9988
(S'204.61.216.35'
p9989
I53
tp9990
a(S'204.13.250.90'
p9991
I53
tp9992
a(S'81.200.69.35'
p9993
I53
tp9994
a(S'74.121.127.35'
p9995
I53
tp9996
a(S'208.78.70.90'
p9997
I53
tp9998
a(S'204.152.184.96'
p9999
I53
tp10000
a(S'192.5.4.1'
p10001
I53
tp10002
a(S'195.253.64.7'
p10003
I53
tp10004
asS'nc'
p10005
(lp10006
(S'202.87.129.17'
p10007
I53
tp10008
a(S'193.0.9.100'
p10009
I53
tp10010
a(S'91.203.32.147'
p10011
I53
tp10012
a(S'114.69.222.1'
p10013
I53
tp10014
a(S'202.87.129.16'
p10015
I53
tp10016
asS'cyou'
p10017
(lp10018
(S'65.22.130.9'
p10019
I53
tp10020
a(S'65.22.128.9'
p10021
I53
tp10022
a(S'65.22.131.9'
p10023
I53
tp10024
a(S'65.22.129.9'
p10025
I53
tp10026
asS'ne'
p10027
(lp10028
(S'196.216.168.45'
p10029
I53
tp10030
a(S'41.138.54.10'
p10031
I53
tp10032
a(S'194.51.3.49'
p10033
I53
tp10034
a(S'193.0.9.101'
p10035
I53
tp10036
asS'actor'
p10037
(lp10038
(S'37.209.196.7'
p10039
I53
tp10040
a(S'37.209.194.7'
p10041
I53
tp10042
a(S'37.209.192.7'
p10043
I53
tp10044
a(S'37.209.198.7'
p10045
I53
tp10046
asS'creditcard'
p10047
(lp10048
(S'37.209.196.7'
p10049
I53
tp10050
a(S'37.209.194.7'
p10051
I53
tp10052
a(S'37.209.192.7'
p10053
I53
tp10054
a(S'37.209.198.7'
p10055
I53
tp10056
asS'nz'
p10057
(lp10058
(S'202.46.187.130'
p10059
I53
tp10060
a(S'202.46.190.130'
p10061
I53
tp10062
a(S'202.46.188.130'
p10063
I53
tp10064
a(S'202.46.189.130'
p10065
I53
tp10066
a(S'194.146.106.54'
p10067
I53
tp10068
a(S'156.154.101.14'
p10069
I53
tp10070
a(S'156.154.100.14'
p10071
I53
tp10072
asS'nico'
p10073
(lp10074
(S'65.22.166.1'
p10075
I53
tp10076
a(S'120.29.254.11'
p10077
I53
tp10078
a(S'65.22.167.1'
p10079
I53
tp10080
a(S'120.29.252.11'
p10081
I53
tp10082
a(S'65.22.165.1'
p10083
I53
tp10084
asS'jcb'
p10085
(lp10086
(S'65.22.166.1'
p10087
I53
tp10088
a(S'120.29.254.11'
p10089
I53
tp10090
a(S'65.22.167.1'
p10091
I53
tp10092
a(S'120.29.252.11'
p10093
I53
tp10094
a(S'65.22.165.1'
p10095
I53
tp10096
asS'digital'
p10097
(lp10098
(S'37.209.196.7'
p10099
I53
tp10100
a(S'37.209.194.7'
p10101
I53
tp10102
a(S'37.209.192.7'
p10103
I53
tp10104
a(S'37.209.198.7'
p10105
I53
tp10106
asS'np'
p10107
(lp10108
(S'198.32.126.50'
p10109
I53
tp10110
a(S'202.12.28.140'
p10111
I53
tp10112
a(S'193.0.9.102'
p10113
I53
tp10114
a(S'192.189.54.17'
p10115
I53
tp10116
a(S'204.61.216.11'
p10117
I53
tp10118
a(S'202.52.255.5'
p10119
I53
tp10120
a(S'204.152.184.64'
p10121
I53
tp10122
asS'tech'
p10123
(lp10124
(S'185.24.64.60'
p10125
I53
tp10126
a(S'194.0.2.2'
p10127
I53
tp10128
a(S'194.0.1.45'
p10129
I53
tp10130
a(S'194.169.218.60'
p10131
I53
tp10132
asS'nr'
p10133
(lp10134
(S'192.5.4.1'
p10135
I53
tp10136
a(S'203.98.225.9'
p10137
I53
tp10138
a(S'134.159.2.140'
p10139
I53
tp10140
a(S'202.144.128.200'
p10141
I53
tp10142
a(S'203.98.224.66'
p10143
I53
tp10144
asS'xn--45brj9c'
p10145
(lp10146
(S'199.254.60.1'
p10147
I53
tp10148
a(S'199.254.62.1'
p10149
I53
tp10150
a(S'125.19.40.90'
p10151
I53
tp10152
a(S'199.254.59.1'
p10153
I53
tp10154
a(S'199.249.125.1'
p10155
I53
tp10156
a(S'115.249.164.142'
p10157
I53
tp10158
a(S'199.254.61.1'
p10159
I53
tp10160
a(S'199.249.117.1'
p10161
I53
tp10162
asS'nu'
p10163
(lp10164
(S'194.146.106.22'
p10165
I53
tp10166
a(S'192.36.144.107'
p10167
I53
tp10168
a(S'65.22.164.1'
p10169
I53
tp10170
asS'xn--ses554g'
p10171
(lp10172
(S'1.8.240.1'
p10173
I53
tp10174
a(S'1.8.241.1'
p10175
I53
tp10176
asS'weir'
p10177
(lp10178
(S'192.26.92.34'
p10179
I53
tp10180
a(S'192.42.93.34'
p10181
I53
tp10182
a(S'192.31.80.34'
p10183
I53
tp10184
a(S'192.41.162.34'
p10185
I53
tp10186
a(S'192.35.51.34'
p10187
I53
tp10188
a(S'192.54.112.34'
p10189
I53
tp10190
a(S'192.5.6.34'
p10191
I53
tp10192
asS'xxx'
p10193
(lp10194
(S'199.115.155.1'
p10195
I53
tp10196
a(S'199.115.156.1'
p10197
I53
tp10198
a(S'199.115.152.1'
p10199
I53
tp10200
a(S'199.115.157.1'
p10201
I53
tp10202
a(S'199.115.153.1'
p10203
I53
tp10204
a(S'199.115.154.1'
p10205
I53
tp10206
asS'football'
p10207
(lp10208
(S'37.209.196.7'
p10209
I53
tp10210
a(S'37.209.194.7'
p10211
I53
tp10212
a(S'37.209.192.7'
p10213
I53
tp10214
a(S'37.209.198.7'
p10215
I53
tp10216
asS'doosan'
p10217
(lp10218
(S'202.31.190.1'
p10219
I53
tp10220
a(S'202.30.124.100'
p10221
I53
tp10222
asS'gifts'
p10223
(lp10224
(S'37.209.196.7'
p10225
I53
tp10226
a(S'37.209.194.7'
p10227
I53
tp10228
a(S'37.209.192.7'
p10229
I53
tp10230
a(S'37.209.198.7'
p10231
I53
tp10232
asS'oracle'
p10233
(lp10234
(S'192.26.92.34'
p10235
I53
tp10236
a(S'192.35.51.34'
p10237
I53
tp10238
a(S'192.31.80.34'
p10239
I53
tp10240
a(S'192.41.162.34'
p10241
I53
tp10242
a(S'192.42.93.34'
p10243
I53
tp10244
a(S'192.54.112.34'
p10245
I53
tp10246
a(S'192.5.6.34'
p10247
I53
tp10248
asS'scholarships'
p10249
(lp10250
(S'65.22.142.17'
p10251
I53
tp10252
a(S'65.22.141.17'
p10253
I53
tp10254
a(S'65.22.140.17'
p10255
I53
tp10256
a(S'65.22.143.17'
p10257
I53
tp10258
asS'xn--pgbs0dh'
p10259
(lp10260
(S'193.95.67.22'
p10261
I53
tp10262
a(S'204.61.216.94'
p10263
I53
tp10264
a(S'196.216.168.25'
p10265
I53
tp10266
a(S'147.28.0.39'
p10267
I53
tp10268
a(S'193.95.66.10'
p10269
I53
tp10270
a(S'192.93.0.4'
p10271
I53
tp10272
asS'xn--zfr164b'
p10273
(lp10274
(S'111.235.165.1'
p10275
I53
tp10276
a(S'111.235.162.1'
p10277
I53
tp10278
a(S'111.235.164.1'
p10279
I53
tp10280
a(S'111.235.161.1'
p10281
I53
tp10282
a(S'111.235.163.1'
p10283
I53
tp10284
asS'catering'
p10285
(lp10286
(S'37.209.196.7'
p10287
I53
tp10288
a(S'37.209.194.7'
p10289
I53
tp10290
a(S'37.209.192.7'
p10291
I53
tp10292
a(S'37.209.198.7'
p10293
I53
tp10294
asS'land'
p10295
(lp10296
(S'37.209.196.7'
p10297
I53
tp10298
a(S'37.209.194.7'
p10299
I53
tp10300
a(S'37.209.192.7'
p10301
I53
tp10302
a(S'37.209.198.7'
p10303
I53
tp10304
asS'photos'
p10305
(lp10306
(S'37.209.196.7'
p10307
I53
tp10308
a(S'37.209.194.7'
p10309
I53
tp10310
a(S'37.209.192.7'
p10311
I53
tp10312
a(S'37.209.198.7'
p10313
I53
tp10314
asS'pr'
p10315
(lp10316
(S'134.202.0.120'
p10317
I53
tp10318
a(S'134.202.1.120'
p10319
I53
tp10320
a(S'134.202.6.100'
p10321
I53
tp10322
a(S'81.91.161.82'
p10323
I53
tp10324
a(S'204.61.216.23'
p10325
I53
tp10326
asS'navy'
p10327
(lp10328
(S'37.209.196.7'
p10329
I53
tp10330
a(S'37.209.194.7'
p10331
I53
tp10332
a(S'37.209.192.7'
p10333
I53
tp10334
a(S'37.209.198.7'
p10335
I53
tp10336
asS'space'
p10337
(lp10338
(S'185.24.64.51'
p10339
I53
tp10340
a(S'194.169.218.51'
p10341
I53
tp10342
a(S'185.24.67.51'
p10343
I53
tp10344
a(S'212.18.251.51'
p10345
I53
tp10346
asS'youtube'
p10347
(lp10348
(S'216.239.32.105'
p10349
I53
tp10350
a(S'216.239.38.105'
p10351
I53
tp10352
a(S'216.239.36.105'
p10353
I53
tp10354
a(S'216.239.60.105'
p10355
I53
tp10356
a(S'216.239.34.105'
p10357
I53
tp10358
asS'xn--p1ai'
p10359
(lp10360
(S'193.232.142.17'
p10361
I53
tp10362
a(S'194.85.252.62'
p10363
I53
tp10364
a(S'193.232.156.17'
p10365
I53
tp10366
a(S'194.190.124.17'
p10367
I53
tp10368
a(S'193.232.128.6'
p10369
I53
tp10370
asS'directory'
p10371
(lp10372
(S'37.209.196.7'
p10373
I53
tp10374
a(S'37.209.194.7'
p10375
I53
tp10376
a(S'37.209.192.7'
p10377
I53
tp10378
a(S'37.209.198.7'
p10379
I53
tp10380
asS'williamhill'
p10381
(lp10382
(S'156.154.156.181'
p10383
I53
tp10384
a(S'156.154.157.181'
p10385
I53
tp10386
a(S'156.154.159.181'
p10387
I53
tp10388
a(S'156.154.144.181'
p10389
I53
tp10390
a(S'156.154.145.181'
p10391
I53
tp10392
a(S'156.154.158.181'
p10393
I53
tp10394
as.